
ackerman:     file format elf64-littleriscv


Disassembly of section .text:

0000000000010000 <_ftext>:
   10000:	00014197          	auipc	gp,0x14
   10004:	95018193          	addi	gp,gp,-1712 # 23950 <_gp>
   10008:	00013297          	auipc	t0,0x13
   1000c:	23028293          	addi	t0,t0,560 # 23238 <_PathLocale>
   10010:	00013317          	auipc	t1,0x13
   10014:	2c830313          	addi	t1,t1,712 # 232d8 <_end>
   10018:	0002b023          	sd	zero,0(t0)
   1001c:	00828293          	addi	t0,t0,8
   10020:	fe62ece3          	bltu	t0,t1,10018 <_ftext+0x18>
   10024:	00000517          	auipc	a0,0x0
   10028:	29c50513          	addi	a0,a0,668 # 102c0 <__libc_fini_array>
   1002c:	250000ef          	jal	1027c <atexit>
   10030:	2ec000ef          	jal	1031c <__libc_init_array>
   10034:	00012503          	lw	a0,0(sp)
   10038:	00810593          	addi	a1,sp,8
   1003c:	00000613          	li	a2,0
   10040:	1c0000ef          	jal	10200 <main>
   10044:	24c0006f          	j	10290 <exit>

0000000000010048 <_fini>:
   10048:	00008067          	ret

000000000001004c <deregister_tm_clones>:
   1004c:	00023537          	lui	a0,0x23
   10050:	000237b7          	lui	a5,0x23
   10054:	14850713          	addi	a4,a0,328 # 23148 <__TMC_END__>
   10058:	14f78793          	addi	a5,a5,335 # 2314f <__TMC_END__+0x7>
   1005c:	40e787b3          	sub	a5,a5,a4
   10060:	00e00713          	li	a4,14
   10064:	00f77c63          	bleu	a5,a4,1007c <deregister_tm_clones+0x30>
   10068:	00000337          	lui	t1,0x0
   1006c:	00030313          	mv	t1,t1
   10070:	00030663          	beqz	t1,1007c <deregister_tm_clones+0x30>
   10074:	14850513          	addi	a0,a0,328
   10078:	00030067          	jr	t1
   1007c:	00008067          	ret

0000000000010080 <register_tm_clones>:
   10080:	00023537          	lui	a0,0x23
   10084:	000237b7          	lui	a5,0x23
   10088:	14850593          	addi	a1,a0,328 # 23148 <__TMC_END__>
   1008c:	14878793          	addi	a5,a5,328 # 23148 <__TMC_END__>
   10090:	40b787b3          	sub	a5,a5,a1
   10094:	4037d793          	srai	a5,a5,0x3
   10098:	03f7d593          	srli	a1,a5,0x3f
   1009c:	00f585b3          	add	a1,a1,a5
   100a0:	4015d593          	srai	a1,a1,0x1
   100a4:	00058c63          	beqz	a1,100bc <register_tm_clones+0x3c>
   100a8:	00000337          	lui	t1,0x0
   100ac:	00030313          	mv	t1,t1
   100b0:	00030663          	beqz	t1,100bc <register_tm_clones+0x3c>
   100b4:	14850513          	addi	a0,a0,328
   100b8:	00030067          	jr	t1
   100bc:	00008067          	ret

00000000000100c0 <__do_global_dtors_aux>:
   100c0:	ff010113          	addi	sp,sp,-16
   100c4:	00813023          	sd	s0,0(sp)
   100c8:	9181c783          	lbu	a5,-1768(gp) # 23268 <_bss_start>
   100cc:	00113423          	sd	ra,8(sp)
   100d0:	02079663          	bnez	a5,100fc <__do_global_dtors_aux+0x3c>
   100d4:	f79ff0ef          	jal	1004c <deregister_tm_clones>
   100d8:	000007b7          	lui	a5,0x0
   100dc:	00078793          	mv	a5,a5
   100e0:	00078a63          	beqz	a5,100f4 <__do_global_dtors_aux+0x34>
   100e4:	00021537          	lui	a0,0x21
   100e8:	b9050513          	addi	a0,a0,-1136 # 20b90 <__fini_array_end>
   100ec:	ffff0317          	auipc	t1,0xffff0
   100f0:	f14300e7          	jalr	t1,-236 # 0 <_ftext-0x10000>
   100f4:	00100793          	li	a5,1
   100f8:	90f18c23          	sb	a5,-1768(gp) # 23268 <_bss_start>
   100fc:	00813083          	ld	ra,8(sp)
   10100:	00013403          	ld	s0,0(sp)
   10104:	01010113          	addi	sp,sp,16
   10108:	00008067          	ret

000000000001010c <frame_dummy>:
   1010c:	ff010113          	addi	sp,sp,-16
   10110:	000007b7          	lui	a5,0x0
   10114:	00113423          	sd	ra,8(sp)
   10118:	00078793          	mv	a5,a5
   1011c:	00078c63          	beqz	a5,10134 <frame_dummy+0x28>
   10120:	00021537          	lui	a0,0x21
   10124:	92018593          	addi	a1,gp,-1760 # 23270 <object.3092>
   10128:	b9050513          	addi	a0,a0,-1136 # 20b90 <__fini_array_end>
   1012c:	ffff0317          	auipc	t1,0xffff0
   10130:	ed4300e7          	jalr	t1,-300 # 0 <_ftext-0x10000>
   10134:	000227b7          	lui	a5,0x22
   10138:	14078513          	addi	a0,a5,320 # 22140 <__JCR_END__>
   1013c:	00053783          	ld	a5,0(a0)
   10140:	00079863          	bnez	a5,10150 <frame_dummy+0x44>
   10144:	00813083          	ld	ra,8(sp)
   10148:	01010113          	addi	sp,sp,16
   1014c:	f35ff06f          	j	10080 <register_tm_clones>
   10150:	000007b7          	lui	a5,0x0
   10154:	00078793          	mv	a5,a5
   10158:	fe0786e3          	beqz	a5,10144 <frame_dummy+0x38>
   1015c:	000780e7          	jalr	a5
   10160:	fe5ff06f          	j	10144 <frame_dummy+0x38>

0000000000010164 <acker>:
   10164:	fd010113          	addi	sp,sp,-48
   10168:	02113423          	sd	ra,40(sp)
   1016c:	02813023          	sd	s0,32(sp)
   10170:	00913c23          	sd	s1,24(sp)
   10174:	03010413          	addi	s0,sp,48
   10178:	fca42e23          	sw	a0,-36(s0)
   1017c:	fcb42c23          	sw	a1,-40(s0)
   10180:	fdc42783          	lw	a5,-36(s0)
   10184:	00079863          	bnez	a5,10194 <acker+0x30>
   10188:	fd842783          	lw	a5,-40(s0)
   1018c:	0017879b          	addiw	a5,a5,1
   10190:	0580006f          	j	101e8 <acker+0x84>
   10194:	fd842783          	lw	a5,-40(s0)
   10198:	02079063          	bnez	a5,101b8 <acker+0x54>
   1019c:	fdc42783          	lw	a5,-36(s0)
   101a0:	fff7879b          	addiw	a5,a5,-1
   101a4:	00100593          	li	a1,1
   101a8:	00078513          	mv	a0,a5
   101ac:	fb9ff0ef          	jal	10164 <acker>
   101b0:	00050793          	mv	a5,a0
   101b4:	0340006f          	j	101e8 <acker+0x84>
   101b8:	fdc42783          	lw	a5,-36(s0)
   101bc:	fff7849b          	addiw	s1,a5,-1
   101c0:	fd842783          	lw	a5,-40(s0)
   101c4:	fff7879b          	addiw	a5,a5,-1
   101c8:	00078593          	mv	a1,a5
   101cc:	fdc42503          	lw	a0,-36(s0)
   101d0:	f95ff0ef          	jal	10164 <acker>
   101d4:	00050793          	mv	a5,a0
   101d8:	00078593          	mv	a1,a5
   101dc:	00048513          	mv	a0,s1
   101e0:	f85ff0ef          	jal	10164 <acker>
   101e4:	00050793          	mv	a5,a0
   101e8:	00078513          	mv	a0,a5
   101ec:	02813083          	ld	ra,40(sp)
   101f0:	02013403          	ld	s0,32(sp)
   101f4:	01813483          	ld	s1,24(sp)
   101f8:	03010113          	addi	sp,sp,48
   101fc:	00008067          	ret

0000000000010200 <main>:
   10200:	fe010113          	addi	sp,sp,-32
   10204:	00113c23          	sd	ra,24(sp)
   10208:	00813823          	sd	s0,16(sp)
   1020c:	02010413          	addi	s0,sp,32
   10210:	fe440713          	addi	a4,s0,-28
   10214:	fe840793          	addi	a5,s0,-24
   10218:	00070613          	mv	a2,a4
   1021c:	00078593          	mv	a1,a5
   10220:	000207b7          	lui	a5,0x20
   10224:	ba078513          	addi	a0,a5,-1120 # 1fba0 <sulp+0x6c>
   10228:	228000ef          	jal	10450 <scanf>
   1022c:	fe842783          	lw	a5,-24(s0)
   10230:	fe442703          	lw	a4,-28(s0)
   10234:	00070593          	mv	a1,a4
   10238:	00078513          	mv	a0,a5
   1023c:	f29ff0ef          	jal	10164 <acker>
   10240:	fea42623          	sw	a0,-20(s0)
   10244:	fe842783          	lw	a5,-24(s0)
   10248:	fe442703          	lw	a4,-28(s0)
   1024c:	fec42683          	lw	a3,-20(s0)
   10250:	00070613          	mv	a2,a4
   10254:	00078593          	mv	a1,a5
   10258:	000207b7          	lui	a5,0x20
   1025c:	ba878513          	addi	a0,a5,-1112 # 1fba8 <sulp+0x74>
   10260:	1a0000ef          	jal	10400 <printf>
   10264:	00000793          	li	a5,0
   10268:	00078513          	mv	a0,a5
   1026c:	01813083          	ld	ra,24(sp)
   10270:	01013403          	ld	s0,16(sp)
   10274:	02010113          	addi	sp,sp,32
   10278:	00008067          	ret

000000000001027c <atexit>:
   1027c:	00050593          	mv	a1,a0
   10280:	00000693          	li	a3,0
   10284:	00000613          	li	a2,0
   10288:	00000513          	li	a0,0
   1028c:	2c00306f          	j	1354c <__register_exitproc>

0000000000010290 <exit>:
   10290:	ff010113          	addi	sp,sp,-16
   10294:	00000593          	li	a1,0
   10298:	00813023          	sd	s0,0(sp)
   1029c:	00113423          	sd	ra,8(sp)
   102a0:	00050413          	mv	s0,a0
   102a4:	3bc030ef          	jal	13660 <__call_exitprocs>
   102a8:	8081b503          	ld	a0,-2040(gp) # 23158 <_global_impure_ptr>
   102ac:	05853783          	ld	a5,88(a0)
   102b0:	00078463          	beqz	a5,102b8 <exit+0x28>
   102b4:	000780e7          	jalr	a5
   102b8:	00040513          	mv	a0,s0
   102bc:	0550f0ef          	jal	1fb10 <_exit>

00000000000102c0 <__libc_fini_array>:
   102c0:	fe010113          	addi	sp,sp,-32
   102c4:	00813823          	sd	s0,16(sp)
   102c8:	00913423          	sd	s1,8(sp)
   102cc:	00021437          	lui	s0,0x21
   102d0:	000214b7          	lui	s1,0x21
   102d4:	b8848493          	addi	s1,s1,-1144 # 20b88 <__init_array_end>
   102d8:	b9040413          	addi	s0,s0,-1136 # 20b90 <__fini_array_end>
   102dc:	40940433          	sub	s0,s0,s1
   102e0:	ff840793          	addi	a5,s0,-8
   102e4:	00113c23          	sd	ra,24(sp)
   102e8:	40345413          	srai	s0,s0,0x3
   102ec:	009784b3          	add	s1,a5,s1
   102f0:	00040c63          	beqz	s0,10308 <__libc_fini_array+0x48>
   102f4:	0004b783          	ld	a5,0(s1)
   102f8:	fff40413          	addi	s0,s0,-1
   102fc:	ff848493          	addi	s1,s1,-8
   10300:	000780e7          	jalr	a5
   10304:	fe0418e3          	bnez	s0,102f4 <__libc_fini_array+0x34>
   10308:	01813083          	ld	ra,24(sp)
   1030c:	01013403          	ld	s0,16(sp)
   10310:	00813483          	ld	s1,8(sp)
   10314:	02010113          	addi	sp,sp,32
   10318:	d31ff06f          	j	10048 <_fini>

000000000001031c <__libc_init_array>:
   1031c:	fe010113          	addi	sp,sp,-32
   10320:	00813823          	sd	s0,16(sp)
   10324:	000217b7          	lui	a5,0x21
   10328:	00021437          	lui	s0,0x21
   1032c:	01213023          	sd	s2,0(sp)
   10330:	b8078793          	addi	a5,a5,-1152 # 20b80 <_etext>
   10334:	b8040913          	addi	s2,s0,-1152 # 20b80 <_etext>
   10338:	41278933          	sub	s2,a5,s2
   1033c:	00913423          	sd	s1,8(sp)
   10340:	00113c23          	sd	ra,24(sp)
   10344:	40395913          	srai	s2,s2,0x3
   10348:	b8040413          	addi	s0,s0,-1152
   1034c:	00000493          	li	s1,0
   10350:	00090c63          	beqz	s2,10368 <__libc_init_array+0x4c>
   10354:	00043783          	ld	a5,0(s0)
   10358:	00148493          	addi	s1,s1,1
   1035c:	00840413          	addi	s0,s0,8
   10360:	000780e7          	jalr	a5
   10364:	fe9918e3          	bne	s2,s1,10354 <__libc_init_array+0x38>
   10368:	ce1ff0ef          	jal	10048 <_fini>
   1036c:	00021437          	lui	s0,0x21
   10370:	000217b7          	lui	a5,0x21
   10374:	b8040913          	addi	s2,s0,-1152 # 20b80 <_etext>
   10378:	b8878793          	addi	a5,a5,-1144 # 20b88 <__init_array_end>
   1037c:	41278933          	sub	s2,a5,s2
   10380:	40395913          	srai	s2,s2,0x3
   10384:	b8040413          	addi	s0,s0,-1152
   10388:	00000493          	li	s1,0
   1038c:	00090c63          	beqz	s2,103a4 <__libc_init_array+0x88>
   10390:	00043783          	ld	a5,0(s0)
   10394:	00148493          	addi	s1,s1,1
   10398:	00840413          	addi	s0,s0,8
   1039c:	000780e7          	jalr	a5
   103a0:	fe9918e3          	bne	s2,s1,10390 <__libc_init_array+0x74>
   103a4:	01813083          	ld	ra,24(sp)
   103a8:	01013403          	ld	s0,16(sp)
   103ac:	00813483          	ld	s1,8(sp)
   103b0:	00013903          	ld	s2,0(sp)
   103b4:	02010113          	addi	sp,sp,32
   103b8:	00008067          	ret

00000000000103bc <_printf_r>:
   103bc:	fb010113          	addi	sp,sp,-80
   103c0:	02c13023          	sd	a2,32(sp)
   103c4:	02d13423          	sd	a3,40(sp)
   103c8:	02f13c23          	sd	a5,56(sp)
   103cc:	02e13823          	sd	a4,48(sp)
   103d0:	05013023          	sd	a6,64(sp)
   103d4:	05113423          	sd	a7,72(sp)
   103d8:	00058613          	mv	a2,a1
   103dc:	01053583          	ld	a1,16(a0)
   103e0:	02010793          	addi	a5,sp,32
   103e4:	00078693          	mv	a3,a5
   103e8:	00113c23          	sd	ra,24(sp)
   103ec:	00f13423          	sd	a5,8(sp)
   103f0:	0f4000ef          	jal	104e4 <_vfprintf_r>
   103f4:	01813083          	ld	ra,24(sp)
   103f8:	05010113          	addi	sp,sp,80
   103fc:	00008067          	ret

0000000000010400 <printf>:
   10400:	8101b303          	ld	t1,-2032(gp) # 23160 <_impure_ptr>
   10404:	fa010113          	addi	sp,sp,-96
   10408:	02c13823          	sd	a2,48(sp)
   1040c:	02d13c23          	sd	a3,56(sp)
   10410:	04f13423          	sd	a5,72(sp)
   10414:	02b13423          	sd	a1,40(sp)
   10418:	04e13023          	sd	a4,64(sp)
   1041c:	05013823          	sd	a6,80(sp)
   10420:	05113c23          	sd	a7,88(sp)
   10424:	01033583          	ld	a1,16(t1)
   10428:	02810793          	addi	a5,sp,40
   1042c:	00050613          	mv	a2,a0
   10430:	00078693          	mv	a3,a5
   10434:	00030513          	mv	a0,t1
   10438:	00113c23          	sd	ra,24(sp)
   1043c:	00f13423          	sd	a5,8(sp)
   10440:	0a4000ef          	jal	104e4 <_vfprintf_r>
   10444:	01813083          	ld	ra,24(sp)
   10448:	06010113          	addi	sp,sp,96
   1044c:	00008067          	ret

0000000000010450 <scanf>:
   10450:	8101b303          	ld	t1,-2032(gp) # 23160 <_impure_ptr>
   10454:	fa010113          	addi	sp,sp,-96
   10458:	02c13823          	sd	a2,48(sp)
   1045c:	02d13c23          	sd	a3,56(sp)
   10460:	04f13423          	sd	a5,72(sp)
   10464:	02b13423          	sd	a1,40(sp)
   10468:	04e13023          	sd	a4,64(sp)
   1046c:	05013823          	sd	a6,80(sp)
   10470:	05113c23          	sd	a7,88(sp)
   10474:	00833583          	ld	a1,8(t1)
   10478:	02810793          	addi	a5,sp,40
   1047c:	00050613          	mv	a2,a0
   10480:	00078693          	mv	a3,a5
   10484:	00030513          	mv	a0,t1
   10488:	00113c23          	sd	ra,24(sp)
   1048c:	00f13423          	sd	a5,8(sp)
   10490:	70d020ef          	jal	1339c <_vfscanf_r>
   10494:	01813083          	ld	ra,24(sp)
   10498:	06010113          	addi	sp,sp,96
   1049c:	00008067          	ret

00000000000104a0 <_scanf_r>:
   104a0:	fb010113          	addi	sp,sp,-80
   104a4:	02c13023          	sd	a2,32(sp)
   104a8:	02d13423          	sd	a3,40(sp)
   104ac:	02f13c23          	sd	a5,56(sp)
   104b0:	02e13823          	sd	a4,48(sp)
   104b4:	05013023          	sd	a6,64(sp)
   104b8:	05113423          	sd	a7,72(sp)
   104bc:	00058613          	mv	a2,a1
   104c0:	00853583          	ld	a1,8(a0)
   104c4:	02010793          	addi	a5,sp,32
   104c8:	00078693          	mv	a3,a5
   104cc:	00113c23          	sd	ra,24(sp)
   104d0:	00f13423          	sd	a5,8(sp)
   104d4:	6c9020ef          	jal	1339c <_vfscanf_r>
   104d8:	01813083          	ld	ra,24(sp)
   104dc:	05010113          	addi	sp,sp,80
   104e0:	00008067          	ret

00000000000104e4 <_vfprintf_r>:
   104e4:	e1010113          	addi	sp,sp,-496
   104e8:	1e113423          	sd	ra,488(sp)
   104ec:	1d313423          	sd	s3,456(sp)
   104f0:	1d413023          	sd	s4,448(sp)
   104f4:	1b713423          	sd	s7,424(sp)
   104f8:	00058a13          	mv	s4,a1
   104fc:	00060993          	mv	s3,a2
   10500:	02d13423          	sd	a3,40(sp)
   10504:	1e813023          	sd	s0,480(sp)
   10508:	1c913c23          	sd	s1,472(sp)
   1050c:	1d213823          	sd	s2,464(sp)
   10510:	1b513c23          	sd	s5,440(sp)
   10514:	1b613823          	sd	s6,432(sp)
   10518:	1b813023          	sd	s8,416(sp)
   1051c:	19913c23          	sd	s9,408(sp)
   10520:	19a13823          	sd	s10,400(sp)
   10524:	19b13423          	sd	s11,392(sp)
   10528:	16813c27          	fsd	fs0,376(sp)
   1052c:	00050b93          	mv	s7,a0
   10530:	4d8050ef          	jal	15a08 <_localeconv_r>
   10534:	00053783          	ld	a5,0(a0)
   10538:	00078513          	mv	a0,a5
   1053c:	06f13023          	sd	a5,96(sp)
   10540:	2c1070ef          	jal	18000 <strlen>
   10544:	06a13423          	sd	a0,104(sp)
   10548:	000b8663          	beqz	s7,10554 <_vfprintf_r+0x70>
   1054c:	050ba783          	lw	a5,80(s7)
   10550:	2e078c63          	beqz	a5,10848 <_vfprintf_r+0x364>
   10554:	010a1683          	lh	a3,16(s4)
   10558:	03069793          	slli	a5,a3,0x30
   1055c:	0307d793          	srli	a5,a5,0x30
   10560:	03279713          	slli	a4,a5,0x32
   10564:	02074a63          	bltz	a4,10598 <_vfprintf_r+0xb4>
   10568:	000027b7          	lui	a5,0x2
   1056c:	0aca2603          	lw	a2,172(s4)
   10570:	00f6e7b3          	or	a5,a3,a5
   10574:	0107979b          	slliw	a5,a5,0x10
   10578:	ffffe737          	lui	a4,0xffffe
   1057c:	4107d79b          	sraiw	a5,a5,0x10
   10580:	fff7071b          	addiw	a4,a4,-1
   10584:	00e67733          	and	a4,a2,a4
   10588:	00fa1823          	sh	a5,16(s4)
   1058c:	03079793          	slli	a5,a5,0x30
   10590:	0aea2623          	sw	a4,172(s4)
   10594:	0307d793          	srli	a5,a5,0x30
   10598:	0087f713          	andi	a4,a5,8
   1059c:	1e070063          	beqz	a4,1077c <_vfprintf_r+0x298>
   105a0:	018a3703          	ld	a4,24(s4)
   105a4:	1c070c63          	beqz	a4,1077c <_vfprintf_r+0x298>
   105a8:	01a7f793          	andi	a5,a5,26
   105ac:	00a00713          	li	a4,10
   105b0:	1ee78863          	beq	a5,a4,107a0 <_vfprintf_r+0x2bc>
   105b4:	000207b7          	lui	a5,0x20
   105b8:	bd078793          	addi	a5,a5,-1072 # 1fbd0 <sulp+0x9c>
   105bc:	0f010b13          	addi	s6,sp,240
   105c0:	02f13823          	sd	a5,48(sp)
   105c4:	0ef10793          	addi	a5,sp,239
   105c8:	00020ab7          	lui	s5,0x20
   105cc:	000204b7          	lui	s1,0x20
   105d0:	40fb07b3          	sub	a5,s6,a5
   105d4:	04013c23          	sd	zero,88(sp)
   105d8:	0b613823          	sd	s6,176(sp)
   105dc:	0c013023          	sd	zero,192(sp)
   105e0:	0a012c23          	sw	zero,184(sp)
   105e4:	06012823          	sw	zero,112(sp)
   105e8:	000b0893          	mv	a7,s6
   105ec:	02013c23          	sd	zero,56(sp)
   105f0:	06012a23          	sw	zero,116(sp)
   105f4:	00012e23          	sw	zero,28(sp)
   105f8:	d38a8a93          	addi	s5,s5,-712 # 1fd38 <blanks.4193>
   105fc:	d4848493          	addi	s1,s1,-696 # 1fd48 <zeroes.4194>
   10600:	06f13c23          	sd	a5,120(sp)
   10604:	0009c783          	lbu	a5,0(s3)
   10608:	0e0782e3          	beqz	a5,10eec <_vfprintf_r+0xa08>
   1060c:	02500713          	li	a4,37
   10610:	00098413          	mv	s0,s3
   10614:	00e79663          	bne	a5,a4,10620 <_vfprintf_r+0x13c>
   10618:	0580006f          	j	10670 <_vfprintf_r+0x18c>
   1061c:	00e78863          	beq	a5,a4,1062c <_vfprintf_r+0x148>
   10620:	00140413          	addi	s0,s0,1
   10624:	00044783          	lbu	a5,0(s0)
   10628:	fe079ae3          	bnez	a5,1061c <_vfprintf_r+0x138>
   1062c:	4134093b          	subw	s2,s0,s3
   10630:	04090063          	beqz	s2,10670 <_vfprintf_r+0x18c>
   10634:	0c013703          	ld	a4,192(sp)
   10638:	0b812783          	lw	a5,184(sp)
   1063c:	00090693          	mv	a3,s2
   10640:	00d70733          	add	a4,a4,a3
   10644:	0017879b          	addiw	a5,a5,1
   10648:	0138b023          	sd	s3,0(a7)
   1064c:	00d8b423          	sd	a3,8(a7)
   10650:	0ce13023          	sd	a4,192(sp)
   10654:	0af12c23          	sw	a5,184(sp)
   10658:	00700713          	li	a4,7
   1065c:	01088893          	addi	a7,a7,16
   10660:	16f74063          	blt	a4,a5,107c0 <_vfprintf_r+0x2dc>
   10664:	01c12783          	lw	a5,28(sp)
   10668:	012787bb          	addw	a5,a5,s2
   1066c:	00f12e23          	sw	a5,28(sp)
   10670:	00044783          	lbu	a5,0(s0)
   10674:	16078463          	beqz	a5,107dc <_vfprintf_r+0x2f8>
   10678:	00140993          	addi	s3,s0,1
   1067c:	080107a3          	sb	zero,143(sp)
   10680:	00000613          	li	a2,0
   10684:	00000593          	li	a1,0
   10688:	fff00413          	li	s0,-1
   1068c:	00012c23          	sw	zero,24(sp)
   10690:	00000c13          	li	s8,0
   10694:	05800713          	li	a4,88
   10698:	00900693          	li	a3,9
   1069c:	02a00513          	li	a0,42
   106a0:	0009cd03          	lbu	s10,0(s3)
   106a4:	00198993          	addi	s3,s3,1
   106a8:	fe0d079b          	addiw	a5,s10,-32
   106ac:	1cf762e3          	bltu	a4,a5,11070 <_vfprintf_r+0xb8c>
   106b0:	03013803          	ld	a6,48(sp)
   106b4:	02079793          	slli	a5,a5,0x20
   106b8:	01e7d793          	srli	a5,a5,0x1e
   106bc:	010787b3          	add	a5,a5,a6
   106c0:	0007a783          	lw	a5,0(a5)
   106c4:	00078067          	jr	a5
   106c8:	010c6c13          	ori	s8,s8,16
   106cc:	fd5ff06f          	j	106a0 <_vfprintf_r+0x1bc>
   106d0:	02813783          	ld	a5,40(sp)
   106d4:	0007a803          	lw	a6,0(a5)
   106d8:	00878793          	addi	a5,a5,8
   106dc:	02f13423          	sd	a5,40(sp)
   106e0:	01012c23          	sw	a6,24(sp)
   106e4:	fa085ee3          	bgez	a6,106a0 <_vfprintf_r+0x1bc>
   106e8:	410007bb          	negw	a5,a6
   106ec:	00f12c23          	sw	a5,24(sp)
   106f0:	004c6c13          	ori	s8,s8,4
   106f4:	fadff06f          	j	106a0 <_vfprintf_r+0x1bc>
   106f8:	03000793          	li	a5,48
   106fc:	08f10823          	sb	a5,144(sp)
   10700:	07800793          	li	a5,120
   10704:	08f108a3          	sb	a5,145(sp)
   10708:	02813783          	ld	a5,40(sp)
   1070c:	080107a3          	sb	zero,143(sp)
   10710:	002c6693          	ori	a3,s8,2
   10714:	00878713          	addi	a4,a5,8
   10718:	0007b783          	ld	a5,0(a5)
   1071c:	180444e3          	bltz	s0,110a4 <_vfprintf_r+0xbc0>
   10720:	f7fc7c13          	andi	s8,s8,-129
   10724:	02e13423          	sd	a4,40(sp)
   10728:	002c6c13          	ori	s8,s8,2
   1072c:	120796e3          	bnez	a5,11058 <_vfprintf_r+0xb74>
   10730:	000217b7          	lui	a5,0x21
   10734:	b1078793          	addi	a5,a5,-1264 # 20b10 <zeroes.4123+0x50>
   10738:	02f13c23          	sd	a5,56(sp)
   1073c:	07800d13          	li	s10,120
   10740:	00000613          	li	a2,0
   10744:	7e040463          	beqz	s0,10f2c <_vfprintf_r+0xa48>
   10748:	00000793          	li	a5,0
   1074c:	000b0913          	mv	s2,s6
   10750:	03813683          	ld	a3,56(sp)
   10754:	00f7f713          	andi	a4,a5,15
   10758:	fff90913          	addi	s2,s2,-1
   1075c:	00e68733          	add	a4,a3,a4
   10760:	00074703          	lbu	a4,0(a4) # ffffffffffffe000 <_gp+0xfffffffffffda6b0>
   10764:	0047d793          	srli	a5,a5,0x4
   10768:	00e90023          	sb	a4,0(s2)
   1076c:	fe0792e3          	bnez	a5,10750 <_vfprintf_r+0x26c>
   10770:	412b07b3          	sub	a5,s6,s2
   10774:	02f12023          	sw	a5,32(sp)
   10778:	1680006f          	j	108e0 <_vfprintf_r+0x3fc>
   1077c:	000a0593          	mv	a1,s4
   10780:	000b8513          	mv	a0,s7
   10784:	465020ef          	jal	133e8 <__swsetup_r>
   10788:	00050463          	beqz	a0,10790 <_vfprintf_r+0x2ac>
   1078c:	3940106f          	j	11b20 <_vfprintf_r+0x163c>
   10790:	010a5783          	lhu	a5,16(s4)
   10794:	00a00713          	li	a4,10
   10798:	01a7f793          	andi	a5,a5,26
   1079c:	e0e79ce3          	bne	a5,a4,105b4 <_vfprintf_r+0xd0>
   107a0:	012a1783          	lh	a5,18(s4)
   107a4:	e007c8e3          	bltz	a5,105b4 <_vfprintf_r+0xd0>
   107a8:	02813683          	ld	a3,40(sp)
   107ac:	00098613          	mv	a2,s3
   107b0:	000a0593          	mv	a1,s4
   107b4:	000b8513          	mv	a0,s7
   107b8:	1c9010ef          	jal	12180 <__sbprintf>
   107bc:	04c0006f          	j	10808 <_vfprintf_r+0x324>
   107c0:	0b010613          	addi	a2,sp,176
   107c4:	000a0593          	mv	a1,s4
   107c8:	000b8513          	mv	a0,s7
   107cc:	7ad0a0ef          	jal	1b778 <__sprint_r>
   107d0:	02051263          	bnez	a0,107f4 <_vfprintf_r+0x310>
   107d4:	000b0893          	mv	a7,s6
   107d8:	e8dff06f          	j	10664 <_vfprintf_r+0x180>
   107dc:	0c013783          	ld	a5,192(sp)
   107e0:	00078a63          	beqz	a5,107f4 <_vfprintf_r+0x310>
   107e4:	0b010613          	addi	a2,sp,176
   107e8:	000a0593          	mv	a1,s4
   107ec:	000b8513          	mv	a0,s7
   107f0:	7890a0ef          	jal	1b778 <__sprint_r>
   107f4:	010a5783          	lhu	a5,16(s4)
   107f8:	0407f793          	andi	a5,a5,64
   107fc:	00078463          	beqz	a5,10804 <_vfprintf_r+0x320>
   10800:	3200106f          	j	11b20 <_vfprintf_r+0x163c>
   10804:	01c12503          	lw	a0,28(sp)
   10808:	1e813083          	ld	ra,488(sp)
   1080c:	1e013403          	ld	s0,480(sp)
   10810:	1d813483          	ld	s1,472(sp)
   10814:	1d013903          	ld	s2,464(sp)
   10818:	1c813983          	ld	s3,456(sp)
   1081c:	1c013a03          	ld	s4,448(sp)
   10820:	1b813a83          	ld	s5,440(sp)
   10824:	1b013b03          	ld	s6,432(sp)
   10828:	1a813b83          	ld	s7,424(sp)
   1082c:	1a013c03          	ld	s8,416(sp)
   10830:	19813c83          	ld	s9,408(sp)
   10834:	19013d03          	ld	s10,400(sp)
   10838:	18813d83          	ld	s11,392(sp)
   1083c:	17813407          	fld	fs0,376(sp)
   10840:	1f010113          	addi	sp,sp,496
   10844:	00008067          	ret
   10848:	000b8513          	mv	a0,s7
   1084c:	0a9040ef          	jal	150f4 <__sinit>
   10850:	d05ff06f          	j	10554 <_vfprintf_r+0x70>
   10854:	00100613          	li	a2,1
   10858:	02b00593          	li	a1,43
   1085c:	e45ff06f          	j	106a0 <_vfprintf_r+0x1bc>
   10860:	00060463          	beqz	a2,10868 <_vfprintf_r+0x384>
   10864:	0d90106f          	j	1213c <_vfprintf_r+0x1c58>
   10868:	010c7793          	andi	a5,s8,16
   1086c:	22078263          	beqz	a5,10a90 <_vfprintf_r+0x5ac>
   10870:	02813783          	ld	a5,40(sp)
   10874:	080107a3          	sb	zero,143(sp)
   10878:	00878713          	addi	a4,a5,8
   1087c:	0007b783          	ld	a5,0(a5)
   10880:	22044663          	bltz	s0,10aac <_vfprintf_r+0x5c8>
   10884:	02e13423          	sd	a4,40(sp)
   10888:	f7fc7c13          	andi	s8,s8,-129
   1088c:	22079663          	bnez	a5,10ab8 <_vfprintf_r+0x5d4>
   10890:	00000613          	li	a2,0
   10894:	00000793          	li	a5,0
   10898:	00041463          	bnez	s0,108a0 <_vfprintf_r+0x3bc>
   1089c:	3680106f          	j	11c04 <_vfprintf_r+0x1720>
   108a0:	000b0913          	mv	s2,s6
   108a4:	0077f713          	andi	a4,a5,7
   108a8:	fff90913          	addi	s2,s2,-1
   108ac:	0307071b          	addiw	a4,a4,48
   108b0:	00e90023          	sb	a4,0(s2)
   108b4:	0037d793          	srli	a5,a5,0x3
   108b8:	fe0796e3          	bnez	a5,108a4 <_vfprintf_r+0x3c0>
   108bc:	001c7793          	andi	a5,s8,1
   108c0:	ea0788e3          	beqz	a5,10770 <_vfprintf_r+0x28c>
   108c4:	03000793          	li	a5,48
   108c8:	eaf704e3          	beq	a4,a5,10770 <_vfprintf_r+0x28c>
   108cc:	fff90713          	addi	a4,s2,-1
   108d0:	40eb06b3          	sub	a3,s6,a4
   108d4:	fef90fa3          	sb	a5,-1(s2)
   108d8:	02d12023          	sw	a3,32(sp)
   108dc:	00070913          	mv	s2,a4
   108e0:	02012783          	lw	a5,32(sp)
   108e4:	00078d93          	mv	s11,a5
   108e8:	0087d463          	ble	s0,a5,108f0 <_vfprintf_r+0x40c>
   108ec:	00040d93          	mv	s11,s0
   108f0:	01b12423          	sw	s11,8(sp)
   108f4:	04012623          	sw	zero,76(sp)
   108f8:	2a060263          	beqz	a2,10b9c <_vfprintf_r+0x6b8>
   108fc:	00812783          	lw	a5,8(sp)
   10900:	0017879b          	addiw	a5,a5,1
   10904:	00f12423          	sw	a5,8(sp)
   10908:	2940006f          	j	10b9c <_vfprintf_r+0x6b8>
   1090c:	0009cd03          	lbu	s10,0(s3)
   10910:	00198993          	addi	s3,s3,1
   10914:	00ad1463          	bne	s10,a0,1091c <_vfprintf_r+0x438>
   10918:	75c0106f          	j	12074 <_vfprintf_r+0x1b90>
   1091c:	fd0d079b          	addiw	a5,s10,-48
   10920:	00000413          	li	s0,0
   10924:	d8f6e2e3          	bltu	a3,a5,106a8 <_vfprintf_r+0x1c4>
   10928:	00198993          	addi	s3,s3,1
   1092c:	fff9cd03          	lbu	s10,-1(s3)
   10930:	0014181b          	slliw	a6,s0,0x1
   10934:	0034141b          	slliw	s0,s0,0x3
   10938:	0088043b          	addw	s0,a6,s0
   1093c:	00f4043b          	addw	s0,s0,a5
   10940:	fd0d079b          	addiw	a5,s10,-48
   10944:	fef6f2e3          	bleu	a5,a3,10928 <_vfprintf_r+0x444>
   10948:	d60450e3          	bgez	s0,106a8 <_vfprintf_r+0x1c4>
   1094c:	fff00413          	li	s0,-1
   10950:	d59ff06f          	j	106a8 <_vfprintf_r+0x1c4>
   10954:	080c6c13          	ori	s8,s8,128
   10958:	d49ff06f          	j	106a0 <_vfprintf_r+0x1bc>
   1095c:	d40592e3          	bnez	a1,106a0 <_vfprintf_r+0x1bc>
   10960:	00100613          	li	a2,1
   10964:	02000593          	li	a1,32
   10968:	d39ff06f          	j	106a0 <_vfprintf_r+0x1bc>
   1096c:	001c6c13          	ori	s8,s8,1
   10970:	d31ff06f          	j	106a0 <_vfprintf_r+0x1bc>
   10974:	02813783          	ld	a5,40(sp)
   10978:	080107a3          	sb	zero,143(sp)
   1097c:	0007b903          	ld	s2,0(a5)
   10980:	00878c93          	addi	s9,a5,8
   10984:	00091463          	bnez	s2,1098c <_vfprintf_r+0x4a8>
   10988:	39c0106f          	j	11d24 <_vfprintf_r+0x1840>
   1098c:	01113023          	sd	a7,0(sp)
   10990:	00045463          	bgez	s0,10998 <_vfprintf_r+0x4b4>
   10994:	3240106f          	j	11cb8 <_vfprintf_r+0x17d4>
   10998:	00040613          	mv	a2,s0
   1099c:	00000593          	li	a1,0
   109a0:	00090513          	mv	a0,s2
   109a4:	405050ef          	jal	165a8 <memchr>
   109a8:	00013883          	ld	a7,0(sp)
   109ac:	00051463          	bnez	a0,109b4 <_vfprintf_r+0x4d0>
   109b0:	4c00106f          	j	11e70 <_vfprintf_r+0x198c>
   109b4:	412507bb          	subw	a5,a0,s2
   109b8:	02f12023          	sw	a5,32(sp)
   109bc:	00078d93          	mv	s11,a5
   109c0:	0007d463          	bgez	a5,109c8 <_vfprintf_r+0x4e4>
   109c4:	3140106f          	j	11cd8 <_vfprintf_r+0x17f4>
   109c8:	08f14603          	lbu	a2,143(sp)
   109cc:	01b12423          	sw	s11,8(sp)
   109d0:	03913423          	sd	s9,40(sp)
   109d4:	00000413          	li	s0,0
   109d8:	04012623          	sw	zero,76(sp)
   109dc:	f1dff06f          	j	108f8 <_vfprintf_r+0x414>
   109e0:	00060463          	beqz	a2,109e8 <_vfprintf_r+0x504>
   109e4:	7800106f          	j	12164 <_vfprintf_r+0x1c80>
   109e8:	010c7793          	andi	a5,s8,16
   109ec:	0e078463          	beqz	a5,10ad4 <_vfprintf_r+0x5f0>
   109f0:	02813783          	ld	a5,40(sp)
   109f4:	080107a3          	sb	zero,143(sp)
   109f8:	00878713          	addi	a4,a5,8
   109fc:	0007b783          	ld	a5,0(a5)
   10a00:	0e044863          	bltz	s0,10af0 <_vfprintf_r+0x60c>
   10a04:	02e13423          	sd	a4,40(sp)
   10a08:	f7fc7c13          	andi	s8,s8,-129
   10a0c:	00000613          	li	a2,0
   10a10:	50078c63          	beqz	a5,10f28 <_vfprintf_r+0xa44>
   10a14:	00900713          	li	a4,9
   10a18:	000b0913          	mv	s2,s6
   10a1c:	00a00693          	li	a3,10
   10a20:	40f770e3          	bleu	a5,a4,11620 <_vfprintf_r+0x113c>
   10a24:	02d7f733          	remu	a4,a5,a3
   10a28:	fff90913          	addi	s2,s2,-1
   10a2c:	02d7d7b3          	divu	a5,a5,a3
   10a30:	0307071b          	addiw	a4,a4,48
   10a34:	00e90023          	sb	a4,0(s2)
   10a38:	fe0796e3          	bnez	a5,10a24 <_vfprintf_r+0x540>
   10a3c:	412b07b3          	sub	a5,s6,s2
   10a40:	02f12023          	sw	a5,32(sp)
   10a44:	e9dff06f          	j	108e0 <_vfprintf_r+0x3fc>
   10a48:	00012c23          	sw	zero,24(sp)
   10a4c:	fd0d079b          	addiw	a5,s10,-48
   10a50:	01812303          	lw	t1,24(sp)
   10a54:	00198993          	addi	s3,s3,1
   10a58:	fff9cd03          	lbu	s10,-1(s3)
   10a5c:	0013181b          	slliw	a6,t1,0x1
   10a60:	00331c9b          	slliw	s9,t1,0x3
   10a64:	01980cbb          	addw	s9,a6,s9
   10a68:	019787bb          	addw	a5,a5,s9
   10a6c:	00f12c23          	sw	a5,24(sp)
   10a70:	fd0d079b          	addiw	a5,s10,-48
   10a74:	fcf6fee3          	bleu	a5,a3,10a50 <_vfprintf_r+0x56c>
   10a78:	c31ff06f          	j	106a8 <_vfprintf_r+0x1c4>
   10a7c:	00060463          	beqz	a2,10a84 <_vfprintf_r+0x5a0>
   10a80:	6d80106f          	j	12158 <_vfprintf_r+0x1c74>
   10a84:	010c6c13          	ori	s8,s8,16
   10a88:	010c7793          	andi	a5,s8,16
   10a8c:	de0792e3          	bnez	a5,10870 <_vfprintf_r+0x38c>
   10a90:	040c7793          	andi	a5,s8,64
   10a94:	080107a3          	sb	zero,143(sp)
   10a98:	580780e3          	beqz	a5,11818 <_vfprintf_r+0x1334>
   10a9c:	02813783          	ld	a5,40(sp)
   10aa0:	00878713          	addi	a4,a5,8
   10aa4:	0007d783          	lhu	a5,0(a5)
   10aa8:	dc045ee3          	bgez	s0,10884 <_vfprintf_r+0x3a0>
   10aac:	02e13423          	sd	a4,40(sp)
   10ab0:	00000613          	li	a2,0
   10ab4:	60078a63          	beqz	a5,110c8 <_vfprintf_r+0xbe4>
   10ab8:	00000613          	li	a2,0
   10abc:	de5ff06f          	j	108a0 <_vfprintf_r+0x3bc>
   10ac0:	00060463          	beqz	a2,10ac8 <_vfprintf_r+0x5e4>
   10ac4:	6880106f          	j	1214c <_vfprintf_r+0x1c68>
   10ac8:	010c6c13          	ori	s8,s8,16
   10acc:	010c7793          	andi	a5,s8,16
   10ad0:	f20790e3          	bnez	a5,109f0 <_vfprintf_r+0x50c>
   10ad4:	040c7793          	andi	a5,s8,64
   10ad8:	080107a3          	sb	zero,143(sp)
   10adc:	500780e3          	beqz	a5,117dc <_vfprintf_r+0x12f8>
   10ae0:	02813783          	ld	a5,40(sp)
   10ae4:	00878713          	addi	a4,a5,8
   10ae8:	0007d783          	lhu	a5,0(a5)
   10aec:	f0045ce3          	bgez	s0,10a04 <_vfprintf_r+0x520>
   10af0:	02e13423          	sd	a4,40(sp)
   10af4:	00000613          	li	a2,0
   10af8:	f0079ee3          	bnez	a5,10a14 <_vfprintf_r+0x530>
   10afc:	00100793          	li	a5,1
   10b00:	5c80006f          	j	110c8 <_vfprintf_r+0xbe4>
   10b04:	00060463          	beqz	a2,10b0c <_vfprintf_r+0x628>
   10b08:	63c0106f          	j	12144 <_vfprintf_r+0x1c60>
   10b0c:	000217b7          	lui	a5,0x21
   10b10:	af878793          	addi	a5,a5,-1288 # 20af8 <zeroes.4123+0x38>
   10b14:	02f13c23          	sd	a5,56(sp)
   10b18:	010c7793          	andi	a5,s8,16
   10b1c:	4c078263          	beqz	a5,10fe0 <_vfprintf_r+0xafc>
   10b20:	02813703          	ld	a4,40(sp)
   10b24:	00073783          	ld	a5,0(a4)
   10b28:	00870713          	addi	a4,a4,8
   10b2c:	02e13423          	sd	a4,40(sp)
   10b30:	001c7713          	andi	a4,s8,1
   10b34:	120706e3          	beqz	a4,11460 <_vfprintf_r+0xf7c>
   10b38:	6a078ee3          	beqz	a5,119f4 <_vfprintf_r+0x1510>
   10b3c:	03000713          	li	a4,48
   10b40:	08e10823          	sb	a4,144(sp)
   10b44:	09a108a3          	sb	s10,145(sp)
   10b48:	080107a3          	sb	zero,143(sp)
   10b4c:	002c6713          	ori	a4,s8,2
   10b50:	00045463          	bgez	s0,10b58 <_vfprintf_r+0x674>
   10b54:	2140106f          	j	11d68 <_vfprintf_r+0x1884>
   10b58:	f7fc7c13          	andi	s8,s8,-129
   10b5c:	002c6c13          	ori	s8,s8,2
   10b60:	00000613          	li	a2,0
   10b64:	be9ff06f          	j	1074c <_vfprintf_r+0x268>
   10b68:	02813703          	ld	a4,40(sp)
   10b6c:	00100693          	li	a3,1
   10b70:	00d12423          	sw	a3,8(sp)
   10b74:	00072783          	lw	a5,0(a4)
   10b78:	080107a3          	sb	zero,143(sp)
   10b7c:	00000613          	li	a2,0
   10b80:	0cf10423          	sb	a5,200(sp)
   10b84:	00870793          	addi	a5,a4,8
   10b88:	02f13423          	sd	a5,40(sp)
   10b8c:	02d12023          	sw	a3,32(sp)
   10b90:	00000413          	li	s0,0
   10b94:	04012623          	sw	zero,76(sp)
   10b98:	0c810913          	addi	s2,sp,200
   10b9c:	002c7793          	andi	a5,s8,2
   10ba0:	04f12023          	sw	a5,64(sp)
   10ba4:	00078863          	beqz	a5,10bb4 <_vfprintf_r+0x6d0>
   10ba8:	00812783          	lw	a5,8(sp)
   10bac:	0027879b          	addiw	a5,a5,2
   10bb0:	00f12423          	sw	a5,8(sp)
   10bb4:	084c7793          	andi	a5,s8,132
   10bb8:	04f12423          	sw	a5,72(sp)
   10bbc:	52079263          	bnez	a5,110e0 <_vfprintf_r+0xbfc>
   10bc0:	01812783          	lw	a5,24(sp)
   10bc4:	00812703          	lw	a4,8(sp)
   10bc8:	40e78cbb          	subw	s9,a5,a4
   10bcc:	51905a63          	blez	s9,110e0 <_vfprintf_r+0xbfc>
   10bd0:	01000793          	li	a5,16
   10bd4:	0197c463          	blt	a5,s9,10bdc <_vfprintf_r+0x6f8>
   10bd8:	1080106f          	j	11ce0 <_vfprintf_r+0x17fc>
   10bdc:	01000813          	li	a6,16
   10be0:	0c013783          	ld	a5,192(sp)
   10be4:	0b812703          	lw	a4,184(sp)
   10be8:	05513823          	sd	s5,80(sp)
   10bec:	00700313          	li	t1,7
   10bf0:	00080d93          	mv	s11,a6
   10bf4:	00c0006f          	j	10c00 <_vfprintf_r+0x71c>
   10bf8:	ff0c8c9b          	addiw	s9,s9,-16
   10bfc:	059dde63          	ble	s9,s11,10c58 <_vfprintf_r+0x774>
   10c00:	01078793          	addi	a5,a5,16
   10c04:	0017071b          	addiw	a4,a4,1
   10c08:	0158b023          	sd	s5,0(a7)
   10c0c:	0108b423          	sd	a6,8(a7)
   10c10:	0cf13023          	sd	a5,192(sp)
   10c14:	0ae12c23          	sw	a4,184(sp)
   10c18:	01088893          	addi	a7,a7,16
   10c1c:	fce35ee3          	ble	a4,t1,10bf8 <_vfprintf_r+0x714>
   10c20:	0b010613          	addi	a2,sp,176
   10c24:	000a0593          	mv	a1,s4
   10c28:	000b8513          	mv	a0,s7
   10c2c:	00613823          	sd	t1,16(sp)
   10c30:	01013023          	sd	a6,0(sp)
   10c34:	3450a0ef          	jal	1b778 <__sprint_r>
   10c38:	ba051ee3          	bnez	a0,107f4 <_vfprintf_r+0x310>
   10c3c:	ff0c8c9b          	addiw	s9,s9,-16
   10c40:	0c013783          	ld	a5,192(sp)
   10c44:	0b812703          	lw	a4,184(sp)
   10c48:	000b0893          	mv	a7,s6
   10c4c:	01013303          	ld	t1,16(sp)
   10c50:	00013803          	ld	a6,0(sp)
   10c54:	fb9dc6e3          	blt	s11,s9,10c00 <_vfprintf_r+0x71c>
   10c58:	05013603          	ld	a2,80(sp)
   10c5c:	00fc87b3          	add	a5,s9,a5
   10c60:	0017071b          	addiw	a4,a4,1
   10c64:	00c8b023          	sd	a2,0(a7)
   10c68:	0198b423          	sd	s9,8(a7)
   10c6c:	0cf13023          	sd	a5,192(sp)
   10c70:	0ae12c23          	sw	a4,184(sp)
   10c74:	00700693          	li	a3,7
   10c78:	0ce6cae3          	blt	a3,a4,1154c <_vfprintf_r+0x1068>
   10c7c:	08f14603          	lbu	a2,143(sp)
   10c80:	01088893          	addi	a7,a7,16
   10c84:	02060a63          	beqz	a2,10cb8 <_vfprintf_r+0x7d4>
   10c88:	0b812703          	lw	a4,184(sp)
   10c8c:	08f10693          	addi	a3,sp,143
   10c90:	00d8b023          	sd	a3,0(a7)
   10c94:	00178793          	addi	a5,a5,1
   10c98:	00100693          	li	a3,1
   10c9c:	0017071b          	addiw	a4,a4,1
   10ca0:	00d8b423          	sd	a3,8(a7)
   10ca4:	0cf13023          	sd	a5,192(sp)
   10ca8:	0ae12c23          	sw	a4,184(sp)
   10cac:	00700693          	li	a3,7
   10cb0:	01088893          	addi	a7,a7,16
   10cb4:	76e6c663          	blt	a3,a4,11420 <_vfprintf_r+0xf3c>
   10cb8:	04012703          	lw	a4,64(sp)
   10cbc:	02070a63          	beqz	a4,10cf0 <_vfprintf_r+0x80c>
   10cc0:	0b812703          	lw	a4,184(sp)
   10cc4:	09010693          	addi	a3,sp,144
   10cc8:	00d8b023          	sd	a3,0(a7)
   10ccc:	00278793          	addi	a5,a5,2
   10cd0:	00200693          	li	a3,2
   10cd4:	0017071b          	addiw	a4,a4,1
   10cd8:	00d8b423          	sd	a3,8(a7)
   10cdc:	0cf13023          	sd	a5,192(sp)
   10ce0:	0ae12c23          	sw	a4,184(sp)
   10ce4:	00700693          	li	a3,7
   10ce8:	01088893          	addi	a7,a7,16
   10cec:	74e6ca63          	blt	a3,a4,11440 <_vfprintf_r+0xf5c>
   10cf0:	04812683          	lw	a3,72(sp)
   10cf4:	08000713          	li	a4,128
   10cf8:	5ee68663          	beq	a3,a4,112e4 <_vfprintf_r+0xe00>
   10cfc:	02012703          	lw	a4,32(sp)
   10d00:	40e4043b          	subw	s0,s0,a4
   10d04:	0c805063          	blez	s0,10dc4 <_vfprintf_r+0x8e0>
   10d08:	01000713          	li	a4,16
   10d0c:	4e875ce3          	ble	s0,a4,11a04 <_vfprintf_r+0x1520>
   10d10:	01000c93          	li	s9,16
   10d14:	0b812703          	lw	a4,184(sp)
   10d18:	00913823          	sd	s1,16(sp)
   10d1c:	00700813          	li	a6,7
   10d20:	000c8d93          	mv	s11,s9
   10d24:	00c0006f          	j	10d30 <_vfprintf_r+0x84c>
   10d28:	ff04041b          	addiw	s0,s0,-16
   10d2c:	048dda63          	ble	s0,s11,10d80 <_vfprintf_r+0x89c>
   10d30:	01078793          	addi	a5,a5,16
   10d34:	0017071b          	addiw	a4,a4,1
   10d38:	0098b023          	sd	s1,0(a7)
   10d3c:	0198b423          	sd	s9,8(a7)
   10d40:	0cf13023          	sd	a5,192(sp)
   10d44:	0ae12c23          	sw	a4,184(sp)
   10d48:	01088893          	addi	a7,a7,16
   10d4c:	fce85ee3          	ble	a4,a6,10d28 <_vfprintf_r+0x844>
   10d50:	0b010613          	addi	a2,sp,176
   10d54:	000a0593          	mv	a1,s4
   10d58:	000b8513          	mv	a0,s7
   10d5c:	01013023          	sd	a6,0(sp)
   10d60:	2190a0ef          	jal	1b778 <__sprint_r>
   10d64:	a80518e3          	bnez	a0,107f4 <_vfprintf_r+0x310>
   10d68:	ff04041b          	addiw	s0,s0,-16
   10d6c:	0c013783          	ld	a5,192(sp)
   10d70:	0b812703          	lw	a4,184(sp)
   10d74:	000b0893          	mv	a7,s6
   10d78:	00013803          	ld	a6,0(sp)
   10d7c:	fa8dcae3          	blt	s11,s0,10d30 <_vfprintf_r+0x84c>
   10d80:	01013683          	ld	a3,16(sp)
   10d84:	008787b3          	add	a5,a5,s0
   10d88:	0017071b          	addiw	a4,a4,1
   10d8c:	00d8b023          	sd	a3,0(a7)
   10d90:	0088b423          	sd	s0,8(a7)
   10d94:	0cf13023          	sd	a5,192(sp)
   10d98:	0ae12c23          	sw	a4,184(sp)
   10d9c:	00700693          	li	a3,7
   10da0:	01088893          	addi	a7,a7,16
   10da4:	02e6d063          	ble	a4,a3,10dc4 <_vfprintf_r+0x8e0>
   10da8:	0b010613          	addi	a2,sp,176
   10dac:	000a0593          	mv	a1,s4
   10db0:	000b8513          	mv	a0,s7
   10db4:	1c50a0ef          	jal	1b778 <__sprint_r>
   10db8:	a2051ee3          	bnez	a0,107f4 <_vfprintf_r+0x310>
   10dbc:	0c013783          	ld	a5,192(sp)
   10dc0:	000b0893          	mv	a7,s6
   10dc4:	100c7713          	andi	a4,s8,256
   10dc8:	40071663          	bnez	a4,111d4 <_vfprintf_r+0xcf0>
   10dcc:	02012703          	lw	a4,32(sp)
   10dd0:	0b812683          	lw	a3,184(sp)
   10dd4:	0128b023          	sd	s2,0(a7)
   10dd8:	00e787b3          	add	a5,a5,a4
   10ddc:	0016869b          	addiw	a3,a3,1
   10de0:	00e8b423          	sd	a4,8(a7)
   10de4:	0cf13023          	sd	a5,192(sp)
   10de8:	0ad12c23          	sw	a3,184(sp)
   10dec:	00700713          	li	a4,7
   10df0:	3cd74263          	blt	a4,a3,111b4 <_vfprintf_r+0xcd0>
   10df4:	01088893          	addi	a7,a7,16
   10df8:	004c7c13          	andi	s8,s8,4
   10dfc:	0c0c0063          	beqz	s8,10ebc <_vfprintf_r+0x9d8>
   10e00:	01812703          	lw	a4,24(sp)
   10e04:	00812683          	lw	a3,8(sp)
   10e08:	40d7043b          	subw	s0,a4,a3
   10e0c:	0a805863          	blez	s0,10ebc <_vfprintf_r+0x9d8>
   10e10:	01000713          	li	a4,16
   10e14:	748754e3          	ble	s0,a4,11d5c <_vfprintf_r+0x1878>
   10e18:	01000913          	li	s2,16
   10e1c:	0b812703          	lw	a4,184(sp)
   10e20:	05513823          	sd	s5,80(sp)
   10e24:	00700c13          	li	s8,7
   10e28:	00090d13          	mv	s10,s2
   10e2c:	00c0006f          	j	10e38 <_vfprintf_r+0x954>
   10e30:	ff04041b          	addiw	s0,s0,-16
   10e34:	048d5663          	ble	s0,s10,10e80 <_vfprintf_r+0x99c>
   10e38:	01078793          	addi	a5,a5,16
   10e3c:	0017071b          	addiw	a4,a4,1
   10e40:	0158b023          	sd	s5,0(a7)
   10e44:	0128b423          	sd	s2,8(a7)
   10e48:	0cf13023          	sd	a5,192(sp)
   10e4c:	0ae12c23          	sw	a4,184(sp)
   10e50:	01088893          	addi	a7,a7,16
   10e54:	fcec5ee3          	ble	a4,s8,10e30 <_vfprintf_r+0x94c>
   10e58:	0b010613          	addi	a2,sp,176
   10e5c:	000a0593          	mv	a1,s4
   10e60:	000b8513          	mv	a0,s7
   10e64:	1150a0ef          	jal	1b778 <__sprint_r>
   10e68:	980516e3          	bnez	a0,107f4 <_vfprintf_r+0x310>
   10e6c:	ff04041b          	addiw	s0,s0,-16
   10e70:	0c013783          	ld	a5,192(sp)
   10e74:	0b812703          	lw	a4,184(sp)
   10e78:	000b0893          	mv	a7,s6
   10e7c:	fa8d4ee3          	blt	s10,s0,10e38 <_vfprintf_r+0x954>
   10e80:	05013683          	ld	a3,80(sp)
   10e84:	008787b3          	add	a5,a5,s0
   10e88:	0017071b          	addiw	a4,a4,1
   10e8c:	00d8b023          	sd	a3,0(a7)
   10e90:	0088b423          	sd	s0,8(a7)
   10e94:	0cf13023          	sd	a5,192(sp)
   10e98:	0ae12c23          	sw	a4,184(sp)
   10e9c:	00700693          	li	a3,7
   10ea0:	00e6de63          	ble	a4,a3,10ebc <_vfprintf_r+0x9d8>
   10ea4:	0b010613          	addi	a2,sp,176
   10ea8:	000a0593          	mv	a1,s4
   10eac:	000b8513          	mv	a0,s7
   10eb0:	0c90a0ef          	jal	1b778 <__sprint_r>
   10eb4:	940510e3          	bnez	a0,107f4 <_vfprintf_r+0x310>
   10eb8:	0c013783          	ld	a5,192(sp)
   10ebc:	01812c83          	lw	s9,24(sp)
   10ec0:	00812703          	lw	a4,8(sp)
   10ec4:	00ecd463          	ble	a4,s9,10ecc <_vfprintf_r+0x9e8>
   10ec8:	00070c93          	mv	s9,a4
   10ecc:	01c12703          	lw	a4,28(sp)
   10ed0:	0197073b          	addw	a4,a4,s9
   10ed4:	00e12e23          	sw	a4,28(sp)
   10ed8:	52079863          	bnez	a5,11408 <_vfprintf_r+0xf24>
   10edc:	0009c783          	lbu	a5,0(s3)
   10ee0:	0a012c23          	sw	zero,184(sp)
   10ee4:	000b0893          	mv	a7,s6
   10ee8:	f2079263          	bnez	a5,1060c <_vfprintf_r+0x128>
   10eec:	00098413          	mv	s0,s3
   10ef0:	f80ff06f          	j	10670 <_vfprintf_r+0x18c>
   10ef4:	00060463          	beqz	a2,10efc <_vfprintf_r+0xa18>
   10ef8:	22c0106f          	j	12124 <_vfprintf_r+0x1c40>
   10efc:	010c7793          	andi	a5,s8,16
   10f00:	12078e63          	beqz	a5,1103c <_vfprintf_r+0xb58>
   10f04:	02813703          	ld	a4,40(sp)
   10f08:	00073783          	ld	a5,0(a4)
   10f0c:	00870713          	addi	a4,a4,8
   10f10:	02e13423          	sd	a4,40(sp)
   10f14:	1407c0e3          	bltz	a5,11854 <_vfprintf_r+0x1370>
   10f18:	08f14603          	lbu	a2,143(sp)
   10f1c:	bc044ee3          	bltz	s0,10af8 <_vfprintf_r+0x614>
   10f20:	f7fc7c13          	andi	s8,s8,-129
   10f24:	ae0798e3          	bnez	a5,10a14 <_vfprintf_r+0x530>
   10f28:	6e041a63          	bnez	s0,1161c <_vfprintf_r+0x1138>
   10f2c:	00000413          	li	s0,0
   10f30:	02012023          	sw	zero,32(sp)
   10f34:	000b0913          	mv	s2,s6
   10f38:	9a9ff06f          	j	108e0 <_vfprintf_r+0x3fc>
   10f3c:	040c6c13          	ori	s8,s8,64
   10f40:	f60ff06f          	j	106a0 <_vfprintf_r+0x1bc>
   10f44:	00060463          	beqz	a2,10f4c <_vfprintf_r+0xa68>
   10f48:	1d40106f          	j	1211c <_vfprintf_r+0x1c38>
   10f4c:	02813783          	ld	a5,40(sp)
   10f50:	00100913          	li	s2,1
   10f54:	0007b787          	fld	fa5,0(a5)
   10f58:	00878793          	addi	a5,a5,8
   10f5c:	01113023          	sd	a7,0(sp)
   10f60:	04f13c27          	fsd	fa5,88(sp)
   10f64:	05813c83          	ld	s9,88(sp)
   10f68:	02f13423          	sd	a5,40(sp)
   10f6c:	f20c8553          	fmv.d.x	fa0,s9
   10f70:	4b1060ef          	jal	17c20 <__fpclassifyd>
   10f74:	00013883          	ld	a7,0(sp)
   10f78:	0f251ce3          	bne	a0,s2,11870 <_vfprintf_r+0x138c>
   10f7c:	f20007d3          	fmv.d.x	fa5,zero
   10f80:	f20c8753          	fmv.d.x	fa4,s9
   10f84:	a2f717d3          	flt.d	a5,fa4,fa5
   10f88:	600792e3          	bnez	a5,11d8c <_vfprintf_r+0x18a8>
   10f8c:	08f14603          	lbu	a2,143(sp)
   10f90:	04700793          	li	a5,71
   10f94:	3da7d8e3          	ble	s10,a5,11b64 <_vfprintf_r+0x1680>
   10f98:	00021937          	lui	s2,0x21
   10f9c:	ae090913          	addi	s2,s2,-1312 # 20ae0 <zeroes.4123+0x20>
   10fa0:	00300793          	li	a5,3
   10fa4:	00f12423          	sw	a5,8(sp)
   10fa8:	f7fc7c13          	andi	s8,s8,-129
   10fac:	02f12023          	sw	a5,32(sp)
   10fb0:	00000413          	li	s0,0
   10fb4:	04012623          	sw	zero,76(sp)
   10fb8:	941ff06f          	j	108f8 <_vfprintf_r+0x414>
   10fbc:	008c6c13          	ori	s8,s8,8
   10fc0:	ee0ff06f          	j	106a0 <_vfprintf_r+0x1bc>
   10fc4:	00060463          	beqz	a2,10fcc <_vfprintf_r+0xae8>
   10fc8:	1280106f          	j	120f0 <_vfprintf_r+0x1c0c>
   10fcc:	000217b7          	lui	a5,0x21
   10fd0:	b1078793          	addi	a5,a5,-1264 # 20b10 <zeroes.4123+0x50>
   10fd4:	02f13c23          	sd	a5,56(sp)
   10fd8:	010c7793          	andi	a5,s8,16
   10fdc:	b40792e3          	bnez	a5,10b20 <_vfprintf_r+0x63c>
   10fe0:	040c7793          	andi	a5,s8,64
   10fe4:	02813703          	ld	a4,40(sp)
   10fe8:	1c0784e3          	beqz	a5,119b0 <_vfprintf_r+0x14cc>
   10fec:	00075783          	lhu	a5,0(a4)
   10ff0:	00870713          	addi	a4,a4,8
   10ff4:	02e13423          	sd	a4,40(sp)
   10ff8:	b39ff06f          	j	10b30 <_vfprintf_r+0x64c>
   10ffc:	00060463          	beqz	a2,11004 <_vfprintf_r+0xb20>
   11000:	10c0106f          	j	1210c <_vfprintf_r+0x1c28>
   11004:	010c7793          	andi	a5,s8,16
   11008:	1a078ce3          	beqz	a5,119c0 <_vfprintf_r+0x14dc>
   1100c:	02813683          	ld	a3,40(sp)
   11010:	01c12703          	lw	a4,28(sp)
   11014:	0006b783          	ld	a5,0(a3)
   11018:	00868693          	addi	a3,a3,8
   1101c:	02d13423          	sd	a3,40(sp)
   11020:	00e7b023          	sd	a4,0(a5)
   11024:	de0ff06f          	j	10604 <_vfprintf_r+0x120>
   11028:	00060463          	beqz	a2,11030 <_vfprintf_r+0xb4c>
   1102c:	0d40106f          	j	12100 <_vfprintf_r+0x1c1c>
   11030:	010c6c13          	ori	s8,s8,16
   11034:	010c7793          	andi	a5,s8,16
   11038:	ec0796e3          	bnez	a5,10f04 <_vfprintf_r+0xa20>
   1103c:	040c7793          	andi	a5,s8,64
   11040:	02813703          	ld	a4,40(sp)
   11044:	1a0780e3          	beqz	a5,119e4 <_vfprintf_r+0x1500>
   11048:	00071783          	lh	a5,0(a4)
   1104c:	00870713          	addi	a4,a4,8
   11050:	02e13423          	sd	a4,40(sp)
   11054:	ec1ff06f          	j	10f14 <_vfprintf_r+0xa30>
   11058:	00021737          	lui	a4,0x21
   1105c:	b1070713          	addi	a4,a4,-1264 # 20b10 <zeroes.4123+0x50>
   11060:	00000613          	li	a2,0
   11064:	02e13c23          	sd	a4,56(sp)
   11068:	07800d13          	li	s10,120
   1106c:	ee0ff06f          	j	1074c <_vfprintf_r+0x268>
   11070:	00060463          	beqz	a2,11078 <_vfprintf_r+0xb94>
   11074:	0c00106f          	j	12134 <_vfprintf_r+0x1c50>
   11078:	f60d0263          	beqz	s10,107dc <_vfprintf_r+0x2f8>
   1107c:	00100793          	li	a5,1
   11080:	00f12423          	sw	a5,8(sp)
   11084:	0da10423          	sb	s10,200(sp)
   11088:	080107a3          	sb	zero,143(sp)
   1108c:	00000613          	li	a2,0
   11090:	02f12023          	sw	a5,32(sp)
   11094:	00000413          	li	s0,0
   11098:	04012623          	sw	zero,76(sp)
   1109c:	0c810913          	addi	s2,sp,200
   110a0:	afdff06f          	j	10b9c <_vfprintf_r+0x6b8>
   110a4:	02e13423          	sd	a4,40(sp)
   110a8:	00021737          	lui	a4,0x21
   110ac:	b1070713          	addi	a4,a4,-1264 # 20b10 <zeroes.4123+0x50>
   110b0:	00068c13          	mv	s8,a3
   110b4:	02e13c23          	sd	a4,56(sp)
   110b8:	07800d13          	li	s10,120
   110bc:	3a079a63          	bnez	a5,11470 <_vfprintf_r+0xf8c>
   110c0:	00000613          	li	a2,0
   110c4:	00200793          	li	a5,2
   110c8:	00100713          	li	a4,1
   110cc:	54e78863          	beq	a5,a4,1161c <_vfprintf_r+0x1138>
   110d0:	00200713          	li	a4,2
   110d4:	e6e78a63          	beq	a5,a4,10748 <_vfprintf_r+0x264>
   110d8:	00000793          	li	a5,0
   110dc:	fc4ff06f          	j	108a0 <_vfprintf_r+0x3bc>
   110e0:	0c013783          	ld	a5,192(sp)
   110e4:	ba1ff06f          	j	10c84 <_vfprintf_r+0x7a0>
   110e8:	07012683          	lw	a3,112(sp)
   110ec:	00100713          	li	a4,1
   110f0:	00178793          	addi	a5,a5,1
   110f4:	6cd75663          	ble	a3,a4,117c0 <_vfprintf_r+0x12dc>
   110f8:	0b812703          	lw	a4,184(sp)
   110fc:	00100693          	li	a3,1
   11100:	00d8b423          	sd	a3,8(a7)
   11104:	0017071b          	addiw	a4,a4,1
   11108:	0128b023          	sd	s2,0(a7)
   1110c:	0cf13023          	sd	a5,192(sp)
   11110:	0ae12c23          	sw	a4,184(sp)
   11114:	00700693          	li	a3,7
   11118:	01088893          	addi	a7,a7,16
   1111c:	6ce6ca63          	blt	a3,a4,117f0 <_vfprintf_r+0x130c>
   11120:	06813683          	ld	a3,104(sp)
   11124:	06013603          	ld	a2,96(sp)
   11128:	0017071b          	addiw	a4,a4,1
   1112c:	00f687b3          	add	a5,a3,a5
   11130:	00d8b423          	sd	a3,8(a7)
   11134:	00c8b023          	sd	a2,0(a7)
   11138:	0cf13023          	sd	a5,192(sp)
   1113c:	0ae12c23          	sw	a4,184(sp)
   11140:	00700693          	li	a3,7
   11144:	01088893          	addi	a7,a7,16
   11148:	6ee6c263          	blt	a3,a4,1182c <_vfprintf_r+0x1348>
   1114c:	f20007d3          	fmv.d.x	fa5,zero
   11150:	05813707          	fld	fa4,88(sp)
   11154:	a2f726d3          	feq.d	a3,fa4,fa5
   11158:	40069c63          	bnez	a3,11570 <_vfprintf_r+0x108c>
   1115c:	07012683          	lw	a3,112(sp)
   11160:	00190913          	addi	s2,s2,1
   11164:	0017071b          	addiw	a4,a4,1
   11168:	fff6869b          	addiw	a3,a3,-1
   1116c:	00d787b3          	add	a5,a5,a3
   11170:	0128b023          	sd	s2,0(a7)
   11174:	00d8b423          	sd	a3,8(a7)
   11178:	0cf13023          	sd	a5,192(sp)
   1117c:	0ae12c23          	sw	a4,184(sp)
   11180:	00700693          	li	a3,7
   11184:	26e6c063          	blt	a3,a4,113e4 <_vfprintf_r+0xf00>
   11188:	01088893          	addi	a7,a7,16
   1118c:	07412683          	lw	a3,116(sp)
   11190:	0a010613          	addi	a2,sp,160
   11194:	0017071b          	addiw	a4,a4,1
   11198:	00f687b3          	add	a5,a3,a5
   1119c:	00c8b023          	sd	a2,0(a7)
   111a0:	00d8b423          	sd	a3,8(a7)
   111a4:	0cf13023          	sd	a5,192(sp)
   111a8:	0ae12c23          	sw	a4,184(sp)
   111ac:	00700693          	li	a3,7
   111b0:	c4e6d2e3          	ble	a4,a3,10df4 <_vfprintf_r+0x910>
   111b4:	0b010613          	addi	a2,sp,176
   111b8:	000a0593          	mv	a1,s4
   111bc:	000b8513          	mv	a0,s7
   111c0:	5b80a0ef          	jal	1b778 <__sprint_r>
   111c4:	e2051863          	bnez	a0,107f4 <_vfprintf_r+0x310>
   111c8:	0c013783          	ld	a5,192(sp)
   111cc:	000b0893          	mv	a7,s6
   111d0:	c29ff06f          	j	10df8 <_vfprintf_r+0x914>
   111d4:	06500713          	li	a4,101
   111d8:	f1a758e3          	ble	s10,a4,110e8 <_vfprintf_r+0xc04>
   111dc:	f20007d3          	fmv.d.x	fa5,zero
   111e0:	05813707          	fld	fa4,88(sp)
   111e4:	a2f72753          	feq.d	a4,fa4,fa5
   111e8:	28070863          	beqz	a4,11478 <_vfprintf_r+0xf94>
   111ec:	0b812703          	lw	a4,184(sp)
   111f0:	000216b7          	lui	a3,0x21
   111f4:	b3068693          	addi	a3,a3,-1232 # 20b30 <zeroes.4123+0x70>
   111f8:	00d8b023          	sd	a3,0(a7)
   111fc:	00178793          	addi	a5,a5,1
   11200:	00100693          	li	a3,1
   11204:	0017071b          	addiw	a4,a4,1
   11208:	00d8b423          	sd	a3,8(a7)
   1120c:	0cf13023          	sd	a5,192(sp)
   11210:	0ae12c23          	sw	a4,184(sp)
   11214:	00700693          	li	a3,7
   11218:	01088893          	addi	a7,a7,16
   1121c:	7ee6ca63          	blt	a3,a4,11a10 <_vfprintf_r+0x152c>
   11220:	09812703          	lw	a4,152(sp)
   11224:	07012683          	lw	a3,112(sp)
   11228:	00d74663          	blt	a4,a3,11234 <_vfprintf_r+0xd50>
   1122c:	001c7713          	andi	a4,s8,1
   11230:	bc0704e3          	beqz	a4,10df8 <_vfprintf_r+0x914>
   11234:	06013703          	ld	a4,96(sp)
   11238:	06813683          	ld	a3,104(sp)
   1123c:	01088893          	addi	a7,a7,16
   11240:	fee8b823          	sd	a4,-16(a7)
   11244:	0b812703          	lw	a4,184(sp)
   11248:	00d787b3          	add	a5,a5,a3
   1124c:	fed8bc23          	sd	a3,-8(a7)
   11250:	0017071b          	addiw	a4,a4,1
   11254:	0cf13023          	sd	a5,192(sp)
   11258:	0ae12c23          	sw	a4,184(sp)
   1125c:	00700693          	li	a3,7
   11260:	1ce6c8e3          	blt	a3,a4,11c30 <_vfprintf_r+0x174c>
   11264:	07012703          	lw	a4,112(sp)
   11268:	fff7041b          	addiw	s0,a4,-1
   1126c:	b88056e3          	blez	s0,10df8 <_vfprintf_r+0x914>
   11270:	01000713          	li	a4,16
   11274:	36875c63          	ble	s0,a4,115ec <_vfprintf_r+0x1108>
   11278:	01000913          	li	s2,16
   1127c:	0b812703          	lw	a4,184(sp)
   11280:	00913823          	sd	s1,16(sp)
   11284:	00700d13          	li	s10,7
   11288:	00090693          	mv	a3,s2
   1128c:	00c0006f          	j	11298 <_vfprintf_r+0xdb4>
   11290:	ff04041b          	addiw	s0,s0,-16
   11294:	3686d063          	ble	s0,a3,115f4 <_vfprintf_r+0x1110>
   11298:	01078793          	addi	a5,a5,16
   1129c:	0017071b          	addiw	a4,a4,1
   112a0:	0098b023          	sd	s1,0(a7)
   112a4:	0128b423          	sd	s2,8(a7)
   112a8:	0cf13023          	sd	a5,192(sp)
   112ac:	0ae12c23          	sw	a4,184(sp)
   112b0:	01088893          	addi	a7,a7,16
   112b4:	fced5ee3          	ble	a4,s10,11290 <_vfprintf_r+0xdac>
   112b8:	0b010613          	addi	a2,sp,176
   112bc:	000a0593          	mv	a1,s4
   112c0:	000b8513          	mv	a0,s7
   112c4:	00d13023          	sd	a3,0(sp)
   112c8:	4b00a0ef          	jal	1b778 <__sprint_r>
   112cc:	d2051463          	bnez	a0,107f4 <_vfprintf_r+0x310>
   112d0:	0c013783          	ld	a5,192(sp)
   112d4:	0b812703          	lw	a4,184(sp)
   112d8:	000b0893          	mv	a7,s6
   112dc:	00013683          	ld	a3,0(sp)
   112e0:	fb1ff06f          	j	11290 <_vfprintf_r+0xdac>
   112e4:	01812703          	lw	a4,24(sp)
   112e8:	00812683          	lw	a3,8(sp)
   112ec:	40d70cbb          	subw	s9,a4,a3
   112f0:	a19056e3          	blez	s9,10cfc <_vfprintf_r+0x818>
   112f4:	01000713          	li	a4,16
   112f8:	2f975ee3          	ble	s9,a4,11df4 <_vfprintf_r+0x1910>
   112fc:	01000813          	li	a6,16
   11300:	0b812703          	lw	a4,184(sp)
   11304:	00913823          	sd	s1,16(sp)
   11308:	00700313          	li	t1,7
   1130c:	00080d93          	mv	s11,a6
   11310:	00c0006f          	j	1131c <_vfprintf_r+0xe38>
   11314:	ff0c8c9b          	addiw	s9,s9,-16
   11318:	059dde63          	ble	s9,s11,11374 <_vfprintf_r+0xe90>
   1131c:	01078793          	addi	a5,a5,16
   11320:	0017071b          	addiw	a4,a4,1
   11324:	0098b023          	sd	s1,0(a7)
   11328:	0108b423          	sd	a6,8(a7)
   1132c:	0cf13023          	sd	a5,192(sp)
   11330:	0ae12c23          	sw	a4,184(sp)
   11334:	01088893          	addi	a7,a7,16
   11338:	fce35ee3          	ble	a4,t1,11314 <_vfprintf_r+0xe30>
   1133c:	0b010613          	addi	a2,sp,176
   11340:	000a0593          	mv	a1,s4
   11344:	000b8513          	mv	a0,s7
   11348:	04613023          	sd	t1,64(sp)
   1134c:	01013023          	sd	a6,0(sp)
   11350:	4280a0ef          	jal	1b778 <__sprint_r>
   11354:	ca051063          	bnez	a0,107f4 <_vfprintf_r+0x310>
   11358:	ff0c8c9b          	addiw	s9,s9,-16
   1135c:	0c013783          	ld	a5,192(sp)
   11360:	0b812703          	lw	a4,184(sp)
   11364:	000b0893          	mv	a7,s6
   11368:	04013303          	ld	t1,64(sp)
   1136c:	00013803          	ld	a6,0(sp)
   11370:	fb9dc6e3          	blt	s11,s9,1131c <_vfprintf_r+0xe38>
   11374:	01013603          	ld	a2,16(sp)
   11378:	019787b3          	add	a5,a5,s9
   1137c:	0017071b          	addiw	a4,a4,1
   11380:	00c8b023          	sd	a2,0(a7)
   11384:	0198b423          	sd	s9,8(a7)
   11388:	0cf13023          	sd	a5,192(sp)
   1138c:	0ae12c23          	sw	a4,184(sp)
   11390:	00700693          	li	a3,7
   11394:	01088893          	addi	a7,a7,16
   11398:	96e6d2e3          	ble	a4,a3,10cfc <_vfprintf_r+0x818>
   1139c:	0b010613          	addi	a2,sp,176
   113a0:	000a0593          	mv	a1,s4
   113a4:	000b8513          	mv	a0,s7
   113a8:	3d00a0ef          	jal	1b778 <__sprint_r>
   113ac:	c4051463          	bnez	a0,107f4 <_vfprintf_r+0x310>
   113b0:	0c013783          	ld	a5,192(sp)
   113b4:	000b0893          	mv	a7,s6
   113b8:	945ff06f          	j	10cfc <_vfprintf_r+0x818>
   113bc:	00913823          	sd	s1,16(sp)
   113c0:	01013683          	ld	a3,16(sp)
   113c4:	008787b3          	add	a5,a5,s0
   113c8:	0017071b          	addiw	a4,a4,1
   113cc:	00d8b023          	sd	a3,0(a7)
   113d0:	0088b423          	sd	s0,8(a7)
   113d4:	0cf13023          	sd	a5,192(sp)
   113d8:	0ae12c23          	sw	a4,184(sp)
   113dc:	00700693          	li	a3,7
   113e0:	dae6d4e3          	ble	a4,a3,11188 <_vfprintf_r+0xca4>
   113e4:	0b010613          	addi	a2,sp,176
   113e8:	000a0593          	mv	a1,s4
   113ec:	000b8513          	mv	a0,s7
   113f0:	3880a0ef          	jal	1b778 <__sprint_r>
   113f4:	c0051063          	bnez	a0,107f4 <_vfprintf_r+0x310>
   113f8:	0c013783          	ld	a5,192(sp)
   113fc:	0b812703          	lw	a4,184(sp)
   11400:	000b0893          	mv	a7,s6
   11404:	d89ff06f          	j	1118c <_vfprintf_r+0xca8>
   11408:	0b010613          	addi	a2,sp,176
   1140c:	000a0593          	mv	a1,s4
   11410:	000b8513          	mv	a0,s7
   11414:	3640a0ef          	jal	1b778 <__sprint_r>
   11418:	ac0502e3          	beqz	a0,10edc <_vfprintf_r+0x9f8>
   1141c:	bd8ff06f          	j	107f4 <_vfprintf_r+0x310>
   11420:	0b010613          	addi	a2,sp,176
   11424:	000a0593          	mv	a1,s4
   11428:	000b8513          	mv	a0,s7
   1142c:	34c0a0ef          	jal	1b778 <__sprint_r>
   11430:	bc051263          	bnez	a0,107f4 <_vfprintf_r+0x310>
   11434:	0c013783          	ld	a5,192(sp)
   11438:	000b0893          	mv	a7,s6
   1143c:	87dff06f          	j	10cb8 <_vfprintf_r+0x7d4>
   11440:	0b010613          	addi	a2,sp,176
   11444:	000a0593          	mv	a1,s4
   11448:	000b8513          	mv	a0,s7
   1144c:	32c0a0ef          	jal	1b778 <__sprint_r>
   11450:	ba051263          	bnez	a0,107f4 <_vfprintf_r+0x310>
   11454:	0c013783          	ld	a5,192(sp)
   11458:	000b0893          	mv	a7,s6
   1145c:	895ff06f          	j	10cf0 <_vfprintf_r+0x80c>
   11460:	080107a3          	sb	zero,143(sp)
   11464:	c4044ce3          	bltz	s0,110bc <_vfprintf_r+0xbd8>
   11468:	f7fc7c13          	andi	s8,s8,-129
   1146c:	ac078a63          	beqz	a5,10740 <_vfprintf_r+0x25c>
   11470:	00000613          	li	a2,0
   11474:	ad8ff06f          	j	1074c <_vfprintf_r+0x268>
   11478:	09812403          	lw	s0,152(sp)
   1147c:	5a805c63          	blez	s0,11a34 <_vfprintf_r+0x1550>
   11480:	04c12703          	lw	a4,76(sp)
   11484:	07012683          	lw	a3,112(sp)
   11488:	00070413          	mv	s0,a4
   1148c:	00e6d463          	ble	a4,a3,11494 <_vfprintf_r+0xfb0>
   11490:	00068413          	mv	s0,a3
   11494:	02805663          	blez	s0,114c0 <_vfprintf_r+0xfdc>
   11498:	0b812703          	lw	a4,184(sp)
   1149c:	008787b3          	add	a5,a5,s0
   114a0:	0128b023          	sd	s2,0(a7)
   114a4:	0017071b          	addiw	a4,a4,1
   114a8:	0088b423          	sd	s0,8(a7)
   114ac:	0cf13023          	sd	a5,192(sp)
   114b0:	0ae12c23          	sw	a4,184(sp)
   114b4:	00700693          	li	a3,7
   114b8:	01088893          	addi	a7,a7,16
   114bc:	6ae6ca63          	blt	a3,a4,11b70 <_vfprintf_r+0x168c>
   114c0:	020448e3          	bltz	s0,11cf0 <_vfprintf_r+0x180c>
   114c4:	04c12703          	lw	a4,76(sp)
   114c8:	4087043b          	subw	s0,a4,s0
   114cc:	1a805c63          	blez	s0,11684 <_vfprintf_r+0x11a0>
   114d0:	01000713          	li	a4,16
   114d4:	16875263          	ble	s0,a4,11638 <_vfprintf_r+0x1154>
   114d8:	01000d13          	li	s10,16
   114dc:	0b812703          	lw	a4,184(sp)
   114e0:	00913823          	sd	s1,16(sp)
   114e4:	00700693          	li	a3,7
   114e8:	000d0813          	mv	a6,s10
   114ec:	00c0006f          	j	114f8 <_vfprintf_r+0x1014>
   114f0:	ff04041b          	addiw	s0,s0,-16
   114f4:	14885663          	ble	s0,a6,11640 <_vfprintf_r+0x115c>
   114f8:	01078793          	addi	a5,a5,16
   114fc:	0017071b          	addiw	a4,a4,1
   11500:	0098b023          	sd	s1,0(a7)
   11504:	01a8b423          	sd	s10,8(a7)
   11508:	0cf13023          	sd	a5,192(sp)
   1150c:	0ae12c23          	sw	a4,184(sp)
   11510:	01088893          	addi	a7,a7,16
   11514:	fce6dee3          	ble	a4,a3,114f0 <_vfprintf_r+0x100c>
   11518:	0b010613          	addi	a2,sp,176
   1151c:	000a0593          	mv	a1,s4
   11520:	000b8513          	mv	a0,s7
   11524:	03013023          	sd	a6,32(sp)
   11528:	00d13023          	sd	a3,0(sp)
   1152c:	24c0a0ef          	jal	1b778 <__sprint_r>
   11530:	ac051263          	bnez	a0,107f4 <_vfprintf_r+0x310>
   11534:	0c013783          	ld	a5,192(sp)
   11538:	0b812703          	lw	a4,184(sp)
   1153c:	000b0893          	mv	a7,s6
   11540:	02013803          	ld	a6,32(sp)
   11544:	00013683          	ld	a3,0(sp)
   11548:	fa9ff06f          	j	114f0 <_vfprintf_r+0x100c>
   1154c:	0b010613          	addi	a2,sp,176
   11550:	000a0593          	mv	a1,s4
   11554:	000b8513          	mv	a0,s7
   11558:	2200a0ef          	jal	1b778 <__sprint_r>
   1155c:	a8051c63          	bnez	a0,107f4 <_vfprintf_r+0x310>
   11560:	08f14603          	lbu	a2,143(sp)
   11564:	0c013783          	ld	a5,192(sp)
   11568:	000b0893          	mv	a7,s6
   1156c:	f18ff06f          	j	10c84 <_vfprintf_r+0x7a0>
   11570:	07012683          	lw	a3,112(sp)
   11574:	fff6841b          	addiw	s0,a3,-1
   11578:	c0805ae3          	blez	s0,1118c <_vfprintf_r+0xca8>
   1157c:	01000693          	li	a3,16
   11580:	e286dee3          	ble	s0,a3,113bc <_vfprintf_r+0xed8>
   11584:	01000913          	li	s2,16
   11588:	00913823          	sd	s1,16(sp)
   1158c:	00700d13          	li	s10,7
   11590:	00090693          	mv	a3,s2
   11594:	00c0006f          	j	115a0 <_vfprintf_r+0x10bc>
   11598:	ff04041b          	addiw	s0,s0,-16
   1159c:	e286d2e3          	ble	s0,a3,113c0 <_vfprintf_r+0xedc>
   115a0:	01078793          	addi	a5,a5,16
   115a4:	0017071b          	addiw	a4,a4,1
   115a8:	0098b023          	sd	s1,0(a7)
   115ac:	0128b423          	sd	s2,8(a7)
   115b0:	0cf13023          	sd	a5,192(sp)
   115b4:	0ae12c23          	sw	a4,184(sp)
   115b8:	01088893          	addi	a7,a7,16
   115bc:	fced5ee3          	ble	a4,s10,11598 <_vfprintf_r+0x10b4>
   115c0:	0b010613          	addi	a2,sp,176
   115c4:	000a0593          	mv	a1,s4
   115c8:	000b8513          	mv	a0,s7
   115cc:	00d13023          	sd	a3,0(sp)
   115d0:	1a80a0ef          	jal	1b778 <__sprint_r>
   115d4:	a2051063          	bnez	a0,107f4 <_vfprintf_r+0x310>
   115d8:	0c013783          	ld	a5,192(sp)
   115dc:	0b812703          	lw	a4,184(sp)
   115e0:	000b0893          	mv	a7,s6
   115e4:	00013683          	ld	a3,0(sp)
   115e8:	fb1ff06f          	j	11598 <_vfprintf_r+0x10b4>
   115ec:	0b812703          	lw	a4,184(sp)
   115f0:	00913823          	sd	s1,16(sp)
   115f4:	01013683          	ld	a3,16(sp)
   115f8:	008787b3          	add	a5,a5,s0
   115fc:	0088b423          	sd	s0,8(a7)
   11600:	00d8b023          	sd	a3,0(a7)
   11604:	0017071b          	addiw	a4,a4,1
   11608:	0cf13023          	sd	a5,192(sp)
   1160c:	0ae12c23          	sw	a4,184(sp)
   11610:	00700693          	li	a3,7
   11614:	fee6d063          	ble	a4,a3,10df4 <_vfprintf_r+0x910>
   11618:	b9dff06f          	j	111b4 <_vfprintf_r+0xcd0>
   1161c:	00000793          	li	a5,0
   11620:	0307879b          	addiw	a5,a5,48
   11624:	0ef107a3          	sb	a5,239(sp)
   11628:	07813783          	ld	a5,120(sp)
   1162c:	0ef10913          	addi	s2,sp,239
   11630:	02f12023          	sw	a5,32(sp)
   11634:	aacff06f          	j	108e0 <_vfprintf_r+0x3fc>
   11638:	0b812703          	lw	a4,184(sp)
   1163c:	00913823          	sd	s1,16(sp)
   11640:	01013683          	ld	a3,16(sp)
   11644:	008787b3          	add	a5,a5,s0
   11648:	0017071b          	addiw	a4,a4,1
   1164c:	00d8b023          	sd	a3,0(a7)
   11650:	0088b423          	sd	s0,8(a7)
   11654:	0cf13023          	sd	a5,192(sp)
   11658:	0ae12c23          	sw	a4,184(sp)
   1165c:	00700693          	li	a3,7
   11660:	01088893          	addi	a7,a7,16
   11664:	02e6d063          	ble	a4,a3,11684 <_vfprintf_r+0x11a0>
   11668:	0b010613          	addi	a2,sp,176
   1166c:	000a0593          	mv	a1,s4
   11670:	000b8513          	mv	a0,s7
   11674:	1040a0ef          	jal	1b778 <__sprint_r>
   11678:	96051e63          	bnez	a0,107f4 <_vfprintf_r+0x310>
   1167c:	0c013783          	ld	a5,192(sp)
   11680:	000b0893          	mv	a7,s6
   11684:	04c12d03          	lw	s10,76(sp)
   11688:	09812703          	lw	a4,152(sp)
   1168c:	07012683          	lw	a3,112(sp)
   11690:	01a90d33          	add	s10,s2,s10
   11694:	0cd74a63          	blt	a4,a3,11768 <_vfprintf_r+0x1284>
   11698:	001c7693          	andi	a3,s8,1
   1169c:	0c069663          	bnez	a3,11768 <_vfprintf_r+0x1284>
   116a0:	07012683          	lw	a3,112(sp)
   116a4:	00d90433          	add	s0,s2,a3
   116a8:	41a40433          	sub	s0,s0,s10
   116ac:	40e6873b          	subw	a4,a3,a4
   116b0:	0004041b          	sext.w	s0,s0
   116b4:	00875463          	ble	s0,a4,116bc <_vfprintf_r+0x11d8>
   116b8:	00070413          	mv	s0,a4
   116bc:	02805663          	blez	s0,116e8 <_vfprintf_r+0x1204>
   116c0:	0b812683          	lw	a3,184(sp)
   116c4:	008787b3          	add	a5,a5,s0
   116c8:	01a8b023          	sd	s10,0(a7)
   116cc:	0016869b          	addiw	a3,a3,1
   116d0:	0088b423          	sd	s0,8(a7)
   116d4:	0cf13023          	sd	a5,192(sp)
   116d8:	0ad12c23          	sw	a3,184(sp)
   116dc:	00700613          	li	a2,7
   116e0:	01088893          	addi	a7,a7,16
   116e4:	4cd64263          	blt	a2,a3,11ba8 <_vfprintf_r+0x16c4>
   116e8:	60044863          	bltz	s0,11cf8 <_vfprintf_r+0x1814>
   116ec:	4087043b          	subw	s0,a4,s0
   116f0:	f0805463          	blez	s0,10df8 <_vfprintf_r+0x914>
   116f4:	01000713          	li	a4,16
   116f8:	ee875ae3          	ble	s0,a4,115ec <_vfprintf_r+0x1108>
   116fc:	01000913          	li	s2,16
   11700:	0b812703          	lw	a4,184(sp)
   11704:	00913823          	sd	s1,16(sp)
   11708:	00700d13          	li	s10,7
   1170c:	00090693          	mv	a3,s2
   11710:	00c0006f          	j	1171c <_vfprintf_r+0x1238>
   11714:	ff04041b          	addiw	s0,s0,-16
   11718:	ec86dee3          	ble	s0,a3,115f4 <_vfprintf_r+0x1110>
   1171c:	01078793          	addi	a5,a5,16
   11720:	0017071b          	addiw	a4,a4,1
   11724:	0098b023          	sd	s1,0(a7)
   11728:	0128b423          	sd	s2,8(a7)
   1172c:	0cf13023          	sd	a5,192(sp)
   11730:	0ae12c23          	sw	a4,184(sp)
   11734:	01088893          	addi	a7,a7,16
   11738:	fced5ee3          	ble	a4,s10,11714 <_vfprintf_r+0x1230>
   1173c:	0b010613          	addi	a2,sp,176
   11740:	000a0593          	mv	a1,s4
   11744:	000b8513          	mv	a0,s7
   11748:	00d13023          	sd	a3,0(sp)
   1174c:	02c0a0ef          	jal	1b778 <__sprint_r>
   11750:	8a051263          	bnez	a0,107f4 <_vfprintf_r+0x310>
   11754:	0c013783          	ld	a5,192(sp)
   11758:	0b812703          	lw	a4,184(sp)
   1175c:	000b0893          	mv	a7,s6
   11760:	00013683          	ld	a3,0(sp)
   11764:	fb1ff06f          	j	11714 <_vfprintf_r+0x1230>
   11768:	06013683          	ld	a3,96(sp)
   1176c:	06813603          	ld	a2,104(sp)
   11770:	01088893          	addi	a7,a7,16
   11774:	fed8b823          	sd	a3,-16(a7)
   11778:	0b812683          	lw	a3,184(sp)
   1177c:	00c787b3          	add	a5,a5,a2
   11780:	fec8bc23          	sd	a2,-8(a7)
   11784:	0016869b          	addiw	a3,a3,1
   11788:	0cf13023          	sd	a5,192(sp)
   1178c:	0ad12c23          	sw	a3,184(sp)
   11790:	00700613          	li	a2,7
   11794:	f0d656e3          	ble	a3,a2,116a0 <_vfprintf_r+0x11bc>
   11798:	0b010613          	addi	a2,sp,176
   1179c:	000a0593          	mv	a1,s4
   117a0:	000b8513          	mv	a0,s7
   117a4:	7d5090ef          	jal	1b778 <__sprint_r>
   117a8:	00050463          	beqz	a0,117b0 <_vfprintf_r+0x12cc>
   117ac:	848ff06f          	j	107f4 <_vfprintf_r+0x310>
   117b0:	09812703          	lw	a4,152(sp)
   117b4:	0c013783          	ld	a5,192(sp)
   117b8:	000b0893          	mv	a7,s6
   117bc:	ee5ff06f          	j	116a0 <_vfprintf_r+0x11bc>
   117c0:	00ec7733          	and	a4,s8,a4
   117c4:	92071ae3          	bnez	a4,110f8 <_vfprintf_r+0xc14>
   117c8:	0b812703          	lw	a4,184(sp)
   117cc:	0128b023          	sd	s2,0(a7)
   117d0:	00100693          	li	a3,1
   117d4:	0017071b          	addiw	a4,a4,1
   117d8:	99dff06f          	j	11174 <_vfprintf_r+0xc90>
   117dc:	02813783          	ld	a5,40(sp)
   117e0:	00878713          	addi	a4,a5,8
   117e4:	0007e783          	lwu	a5,0(a5)
   117e8:	a0045e63          	bgez	s0,10a04 <_vfprintf_r+0x520>
   117ec:	b04ff06f          	j	10af0 <_vfprintf_r+0x60c>
   117f0:	0b010613          	addi	a2,sp,176
   117f4:	000a0593          	mv	a1,s4
   117f8:	000b8513          	mv	a0,s7
   117fc:	77d090ef          	jal	1b778 <__sprint_r>
   11800:	00050463          	beqz	a0,11808 <_vfprintf_r+0x1324>
   11804:	ff1fe06f          	j	107f4 <_vfprintf_r+0x310>
   11808:	0c013783          	ld	a5,192(sp)
   1180c:	0b812703          	lw	a4,184(sp)
   11810:	000b0893          	mv	a7,s6
   11814:	90dff06f          	j	11120 <_vfprintf_r+0xc3c>
   11818:	02813783          	ld	a5,40(sp)
   1181c:	00878713          	addi	a4,a5,8
   11820:	0007e783          	lwu	a5,0(a5)
   11824:	86045063          	bgez	s0,10884 <_vfprintf_r+0x3a0>
   11828:	a84ff06f          	j	10aac <_vfprintf_r+0x5c8>
   1182c:	0b010613          	addi	a2,sp,176
   11830:	000a0593          	mv	a1,s4
   11834:	000b8513          	mv	a0,s7
   11838:	741090ef          	jal	1b778 <__sprint_r>
   1183c:	00050463          	beqz	a0,11844 <_vfprintf_r+0x1360>
   11840:	fb5fe06f          	j	107f4 <_vfprintf_r+0x310>
   11844:	0c013783          	ld	a5,192(sp)
   11848:	0b812703          	lw	a4,184(sp)
   1184c:	000b0893          	mv	a7,s6
   11850:	8fdff06f          	j	1114c <_vfprintf_r+0xc68>
   11854:	02d00713          	li	a4,45
   11858:	08e107a3          	sb	a4,143(sp)
   1185c:	40f007b3          	neg	a5,a5
   11860:	4a044063          	bltz	s0,11d00 <_vfprintf_r+0x181c>
   11864:	f7fc7c13          	andi	s8,s8,-129
   11868:	02d00613          	li	a2,45
   1186c:	9a8ff06f          	j	10a14 <_vfprintf_r+0x530>
   11870:	05813507          	fld	fa0,88(sp)
   11874:	01113023          	sd	a7,0(sp)
   11878:	3a8060ef          	jal	17c20 <__fpclassifyd>
   1187c:	00013883          	ld	a7,0(sp)
   11880:	2a050463          	beqz	a0,11b28 <_vfprintf_r+0x1644>
   11884:	fff00793          	li	a5,-1
   11888:	fdfd7d93          	andi	s11,s10,-33
   1188c:	62f40c63          	beq	s0,a5,11ec4 <_vfprintf_r+0x19e0>
   11890:	04700793          	li	a5,71
   11894:	62fd8263          	beq	s11,a5,11eb8 <_vfprintf_r+0x19d4>
   11898:	05813703          	ld	a4,88(sp)
   1189c:	100c6693          	ori	a3,s8,256
   118a0:	00d12023          	sw	a3,0(sp)
   118a4:	42075793          	srai	a5,a4,0x20
   118a8:	f2070453          	fmv.d.x	fs0,a4
   118ac:	00000c93          	li	s9,0
   118b0:	6607c663          	bltz	a5,11f1c <_vfprintf_r+0x1a38>
   118b4:	06600793          	li	a5,102
   118b8:	60fd0a63          	beq	s10,a5,11ecc <_vfprintf_r+0x19e8>
   118bc:	04600793          	li	a5,70
   118c0:	72fd0863          	beq	s10,a5,11ff0 <_vfprintf_r+0x1b0c>
   118c4:	fbbd859b          	addiw	a1,s11,-69
   118c8:	0015b593          	seqz	a1,a1
   118cc:	228405d3          	fmv.d	fa1,fs0
   118d0:	00b405bb          	addw	a1,s0,a1
   118d4:	09c10793          	addi	a5,sp,156
   118d8:	00058693          	mv	a3,a1
   118dc:	0a810813          	addi	a6,sp,168
   118e0:	09810713          	addi	a4,sp,152
   118e4:	00200613          	li	a2,2
   118e8:	000b8513          	mv	a0,s7
   118ec:	01113823          	sd	a7,16(sp)
   118f0:	00b13423          	sd	a1,8(sp)
   118f4:	0ec020ef          	jal	139e0 <_dtoa_r>
   118f8:	06700793          	li	a5,103
   118fc:	00050913          	mv	s2,a0
   11900:	00813583          	ld	a1,8(sp)
   11904:	01013883          	ld	a7,16(sp)
   11908:	46fd0863          	beq	s10,a5,11d78 <_vfprintf_r+0x1894>
   1190c:	04700793          	li	a5,71
   11910:	00b50733          	add	a4,a0,a1
   11914:	48fd0a63          	beq	s10,a5,11da8 <_vfprintf_r+0x18c4>
   11918:	f20007d3          	fmv.d.x	fa5,zero
   1191c:	00070793          	mv	a5,a4
   11920:	a2f426d3          	feq.d	a3,fs0,fa5
   11924:	02069263          	bnez	a3,11948 <_vfprintf_r+0x1464>
   11928:	0a813783          	ld	a5,168(sp)
   1192c:	00e7fe63          	bleu	a4,a5,11948 <_vfprintf_r+0x1464>
   11930:	03000613          	li	a2,48
   11934:	00178693          	addi	a3,a5,1
   11938:	0ad13423          	sd	a3,168(sp)
   1193c:	00c78023          	sb	a2,0(a5)
   11940:	0a813783          	ld	a5,168(sp)
   11944:	fee7e8e3          	bltu	a5,a4,11934 <_vfprintf_r+0x1450>
   11948:	412787b3          	sub	a5,a5,s2
   1194c:	06f12823          	sw	a5,112(sp)
   11950:	04700793          	li	a5,71
   11954:	46fd8663          	beq	s11,a5,11dc0 <_vfprintf_r+0x18dc>
   11958:	06500793          	li	a5,101
   1195c:	7ba7dc63          	ble	s10,a5,12114 <_vfprintf_r+0x1c30>
   11960:	06600793          	li	a5,102
   11964:	60fd0263          	beq	s10,a5,11f68 <_vfprintf_r+0x1a84>
   11968:	09812783          	lw	a5,152(sp)
   1196c:	04f12623          	sw	a5,76(sp)
   11970:	04c12703          	lw	a4,76(sp)
   11974:	07012683          	lw	a3,112(sp)
   11978:	00070793          	mv	a5,a4
   1197c:	5ad74663          	blt	a4,a3,11f28 <_vfprintf_r+0x1a44>
   11980:	001c7c13          	andi	s8,s8,1
   11984:	5c0c1463          	bnez	s8,11f4c <_vfprintf_r+0x1a68>
   11988:	76074863          	bltz	a4,120f8 <_vfprintf_r+0x1c14>
   1198c:	04c12703          	lw	a4,76(sp)
   11990:	06700d13          	li	s10,103
   11994:	02e12023          	sw	a4,32(sp)
   11998:	440c9063          	bnez	s9,11dd8 <_vfprintf_r+0x18f4>
   1199c:	08f14603          	lbu	a2,143(sp)
   119a0:	00f12423          	sw	a5,8(sp)
   119a4:	00012c03          	lw	s8,0(sp)
   119a8:	00000413          	li	s0,0
   119ac:	f4dfe06f          	j	108f8 <_vfprintf_r+0x414>
   119b0:	00076783          	lwu	a5,0(a4)
   119b4:	00870713          	addi	a4,a4,8
   119b8:	02e13423          	sd	a4,40(sp)
   119bc:	974ff06f          	j	10b30 <_vfprintf_r+0x64c>
   119c0:	02813703          	ld	a4,40(sp)
   119c4:	040c7c13          	andi	s8,s8,64
   119c8:	00073783          	ld	a5,0(a4)
   119cc:	00870713          	addi	a4,a4,8
   119d0:	02e13423          	sd	a4,40(sp)
   119d4:	180c0263          	beqz	s8,11b58 <_vfprintf_r+0x1674>
   119d8:	01c15703          	lhu	a4,28(sp)
   119dc:	00e79023          	sh	a4,0(a5)
   119e0:	c25fe06f          	j	10604 <_vfprintf_r+0x120>
   119e4:	00072783          	lw	a5,0(a4)
   119e8:	00870713          	addi	a4,a4,8
   119ec:	02e13423          	sd	a4,40(sp)
   119f0:	d24ff06f          	j	10f14 <_vfprintf_r+0xa30>
   119f4:	080107a3          	sb	zero,143(sp)
   119f8:	ec044463          	bltz	s0,110c0 <_vfprintf_r+0xbdc>
   119fc:	f7fc7c13          	andi	s8,s8,-129
   11a00:	d41fe06f          	j	10740 <_vfprintf_r+0x25c>
   11a04:	0b812703          	lw	a4,184(sp)
   11a08:	00913823          	sd	s1,16(sp)
   11a0c:	b74ff06f          	j	10d80 <_vfprintf_r+0x89c>
   11a10:	0b010613          	addi	a2,sp,176
   11a14:	000a0593          	mv	a1,s4
   11a18:	000b8513          	mv	a0,s7
   11a1c:	55d090ef          	jal	1b778 <__sprint_r>
   11a20:	00050463          	beqz	a0,11a28 <_vfprintf_r+0x1544>
   11a24:	dd1fe06f          	j	107f4 <_vfprintf_r+0x310>
   11a28:	0c013783          	ld	a5,192(sp)
   11a2c:	000b0893          	mv	a7,s6
   11a30:	ff0ff06f          	j	11220 <_vfprintf_r+0xd3c>
   11a34:	0b812703          	lw	a4,184(sp)
   11a38:	000216b7          	lui	a3,0x21
   11a3c:	b3068693          	addi	a3,a3,-1232 # 20b30 <zeroes.4123+0x70>
   11a40:	00d8b023          	sd	a3,0(a7)
   11a44:	00178793          	addi	a5,a5,1
   11a48:	00100693          	li	a3,1
   11a4c:	0017071b          	addiw	a4,a4,1
   11a50:	00d8b423          	sd	a3,8(a7)
   11a54:	0cf13023          	sd	a5,192(sp)
   11a58:	0ae12c23          	sw	a4,184(sp)
   11a5c:	00700693          	li	a3,7
   11a60:	01088893          	addi	a7,a7,16
   11a64:	16e6ca63          	blt	a3,a4,11bd8 <_vfprintf_r+0x16f4>
   11a68:	12040663          	beqz	s0,11b94 <_vfprintf_r+0x16b0>
   11a6c:	06013703          	ld	a4,96(sp)
   11a70:	06813683          	ld	a3,104(sp)
   11a74:	01088893          	addi	a7,a7,16
   11a78:	fee8b823          	sd	a4,-16(a7)
   11a7c:	0b812703          	lw	a4,184(sp)
   11a80:	00f687b3          	add	a5,a3,a5
   11a84:	fed8bc23          	sd	a3,-8(a7)
   11a88:	0017071b          	addiw	a4,a4,1
   11a8c:	0cf13023          	sd	a5,192(sp)
   11a90:	0ae12c23          	sw	a4,184(sp)
   11a94:	00700693          	li	a3,7
   11a98:	3ee6ca63          	blt	a3,a4,11e8c <_vfprintf_r+0x19a8>
   11a9c:	4080043b          	negw	s0,s0
   11aa0:	20805263          	blez	s0,11ca4 <_vfprintf_r+0x17c0>
   11aa4:	01000693          	li	a3,16
   11aa8:	1a86d663          	ble	s0,a3,11c54 <_vfprintf_r+0x1770>
   11aac:	01000d13          	li	s10,16
   11ab0:	00913823          	sd	s1,16(sp)
   11ab4:	00700813          	li	a6,7
   11ab8:	000d0693          	mv	a3,s10
   11abc:	00c0006f          	j	11ac8 <_vfprintf_r+0x15e4>
   11ac0:	ff04041b          	addiw	s0,s0,-16
   11ac4:	1886da63          	ble	s0,a3,11c58 <_vfprintf_r+0x1774>
   11ac8:	01078793          	addi	a5,a5,16
   11acc:	0017071b          	addiw	a4,a4,1
   11ad0:	0098b023          	sd	s1,0(a7)
   11ad4:	01a8b423          	sd	s10,8(a7)
   11ad8:	0cf13023          	sd	a5,192(sp)
   11adc:	0ae12c23          	sw	a4,184(sp)
   11ae0:	01088893          	addi	a7,a7,16
   11ae4:	fce85ee3          	ble	a4,a6,11ac0 <_vfprintf_r+0x15dc>
   11ae8:	0b010613          	addi	a2,sp,176
   11aec:	000a0593          	mv	a1,s4
   11af0:	000b8513          	mv	a0,s7
   11af4:	02d13023          	sd	a3,32(sp)
   11af8:	01013023          	sd	a6,0(sp)
   11afc:	47d090ef          	jal	1b778 <__sprint_r>
   11b00:	00050463          	beqz	a0,11b08 <_vfprintf_r+0x1624>
   11b04:	cf1fe06f          	j	107f4 <_vfprintf_r+0x310>
   11b08:	0c013783          	ld	a5,192(sp)
   11b0c:	0b812703          	lw	a4,184(sp)
   11b10:	000b0893          	mv	a7,s6
   11b14:	02013683          	ld	a3,32(sp)
   11b18:	00013803          	ld	a6,0(sp)
   11b1c:	fa5ff06f          	j	11ac0 <_vfprintf_r+0x15dc>
   11b20:	fff00513          	li	a0,-1
   11b24:	ce5fe06f          	j	10808 <_vfprintf_r+0x324>
   11b28:	04700793          	li	a5,71
   11b2c:	27a7c863          	blt	a5,s10,11d9c <_vfprintf_r+0x18b8>
   11b30:	00021937          	lui	s2,0x21
   11b34:	ae890913          	addi	s2,s2,-1304 # 20ae8 <zeroes.4123+0x28>
   11b38:	00300793          	li	a5,3
   11b3c:	00f12423          	sw	a5,8(sp)
   11b40:	f7fc7c13          	andi	s8,s8,-129
   11b44:	08f14603          	lbu	a2,143(sp)
   11b48:	02f12023          	sw	a5,32(sp)
   11b4c:	00000413          	li	s0,0
   11b50:	04012623          	sw	zero,76(sp)
   11b54:	da5fe06f          	j	108f8 <_vfprintf_r+0x414>
   11b58:	01c12703          	lw	a4,28(sp)
   11b5c:	00e7a023          	sw	a4,0(a5)
   11b60:	aa5fe06f          	j	10604 <_vfprintf_r+0x120>
   11b64:	00021937          	lui	s2,0x21
   11b68:	ad890913          	addi	s2,s2,-1320 # 20ad8 <zeroes.4123+0x18>
   11b6c:	c34ff06f          	j	10fa0 <_vfprintf_r+0xabc>
   11b70:	0b010613          	addi	a2,sp,176
   11b74:	000a0593          	mv	a1,s4
   11b78:	000b8513          	mv	a0,s7
   11b7c:	3fd090ef          	jal	1b778 <__sprint_r>
   11b80:	00050463          	beqz	a0,11b88 <_vfprintf_r+0x16a4>
   11b84:	c71fe06f          	j	107f4 <_vfprintf_r+0x310>
   11b88:	0c013783          	ld	a5,192(sp)
   11b8c:	000b0893          	mv	a7,s6
   11b90:	931ff06f          	j	114c0 <_vfprintf_r+0xfdc>
   11b94:	07012703          	lw	a4,112(sp)
   11b98:	ec071ae3          	bnez	a4,11a6c <_vfprintf_r+0x1588>
   11b9c:	001c7713          	andi	a4,s8,1
   11ba0:	a4070c63          	beqz	a4,10df8 <_vfprintf_r+0x914>
   11ba4:	ec9ff06f          	j	11a6c <_vfprintf_r+0x1588>
   11ba8:	0b010613          	addi	a2,sp,176
   11bac:	000a0593          	mv	a1,s4
   11bb0:	000b8513          	mv	a0,s7
   11bb4:	3c5090ef          	jal	1b778 <__sprint_r>
   11bb8:	00050463          	beqz	a0,11bc0 <_vfprintf_r+0x16dc>
   11bbc:	c39fe06f          	j	107f4 <_vfprintf_r+0x310>
   11bc0:	09812703          	lw	a4,152(sp)
   11bc4:	07012683          	lw	a3,112(sp)
   11bc8:	0c013783          	ld	a5,192(sp)
   11bcc:	000b0893          	mv	a7,s6
   11bd0:	40e6873b          	subw	a4,a3,a4
   11bd4:	b15ff06f          	j	116e8 <_vfprintf_r+0x1204>
   11bd8:	0b010613          	addi	a2,sp,176
   11bdc:	000a0593          	mv	a1,s4
   11be0:	000b8513          	mv	a0,s7
   11be4:	395090ef          	jal	1b778 <__sprint_r>
   11be8:	00050463          	beqz	a0,11bf0 <_vfprintf_r+0x170c>
   11bec:	c09fe06f          	j	107f4 <_vfprintf_r+0x310>
   11bf0:	09812403          	lw	s0,152(sp)
   11bf4:	0c013783          	ld	a5,192(sp)
   11bf8:	000b0893          	mv	a7,s6
   11bfc:	e60418e3          	bnez	s0,11a6c <_vfprintf_r+0x1588>
   11c00:	f95ff06f          	j	11b94 <_vfprintf_r+0x16b0>
   11c04:	001c7793          	andi	a5,s8,1
   11c08:	00078e63          	beqz	a5,11c24 <_vfprintf_r+0x1740>
   11c0c:	03000793          	li	a5,48
   11c10:	0ef107a3          	sb	a5,239(sp)
   11c14:	07813783          	ld	a5,120(sp)
   11c18:	0ef10913          	addi	s2,sp,239
   11c1c:	02f12023          	sw	a5,32(sp)
   11c20:	cc1fe06f          	j	108e0 <_vfprintf_r+0x3fc>
   11c24:	02012023          	sw	zero,32(sp)
   11c28:	000b0913          	mv	s2,s6
   11c2c:	cb5fe06f          	j	108e0 <_vfprintf_r+0x3fc>
   11c30:	0b010613          	addi	a2,sp,176
   11c34:	000a0593          	mv	a1,s4
   11c38:	000b8513          	mv	a0,s7
   11c3c:	33d090ef          	jal	1b778 <__sprint_r>
   11c40:	00050463          	beqz	a0,11c48 <_vfprintf_r+0x1764>
   11c44:	bb1fe06f          	j	107f4 <_vfprintf_r+0x310>
   11c48:	0c013783          	ld	a5,192(sp)
   11c4c:	000b0893          	mv	a7,s6
   11c50:	e14ff06f          	j	11264 <_vfprintf_r+0xd80>
   11c54:	00913823          	sd	s1,16(sp)
   11c58:	01013683          	ld	a3,16(sp)
   11c5c:	008787b3          	add	a5,a5,s0
   11c60:	0017071b          	addiw	a4,a4,1
   11c64:	00d8b023          	sd	a3,0(a7)
   11c68:	0088b423          	sd	s0,8(a7)
   11c6c:	0cf13023          	sd	a5,192(sp)
   11c70:	0ae12c23          	sw	a4,184(sp)
   11c74:	00700693          	li	a3,7
   11c78:	01088893          	addi	a7,a7,16
   11c7c:	02e6d463          	ble	a4,a3,11ca4 <_vfprintf_r+0x17c0>
   11c80:	0b010613          	addi	a2,sp,176
   11c84:	000a0593          	mv	a1,s4
   11c88:	000b8513          	mv	a0,s7
   11c8c:	2ed090ef          	jal	1b778 <__sprint_r>
   11c90:	00050463          	beqz	a0,11c98 <_vfprintf_r+0x17b4>
   11c94:	b61fe06f          	j	107f4 <_vfprintf_r+0x310>
   11c98:	0c013783          	ld	a5,192(sp)
   11c9c:	0b812703          	lw	a4,184(sp)
   11ca0:	000b0893          	mv	a7,s6
   11ca4:	07012683          	lw	a3,112(sp)
   11ca8:	0017071b          	addiw	a4,a4,1
   11cac:	0128b023          	sd	s2,0(a7)
   11cb0:	00f687b3          	add	a5,a3,a5
   11cb4:	cecff06f          	j	111a0 <_vfprintf_r+0xcbc>
   11cb8:	00090513          	mv	a0,s2
   11cbc:	344060ef          	jal	18000 <strlen>
   11cc0:	0005079b          	sext.w	a5,a0
   11cc4:	02f12023          	sw	a5,32(sp)
   11cc8:	00078d93          	mv	s11,a5
   11ccc:	00013883          	ld	a7,0(sp)
   11cd0:	0007c463          	bltz	a5,11cd8 <_vfprintf_r+0x17f4>
   11cd4:	cf5fe06f          	j	109c8 <_vfprintf_r+0x4e4>
   11cd8:	00000d93          	li	s11,0
   11cdc:	cedfe06f          	j	109c8 <_vfprintf_r+0x4e4>
   11ce0:	0c013783          	ld	a5,192(sp)
   11ce4:	0b812703          	lw	a4,184(sp)
   11ce8:	05513823          	sd	s5,80(sp)
   11cec:	f6dfe06f          	j	10c58 <_vfprintf_r+0x774>
   11cf0:	00000413          	li	s0,0
   11cf4:	fd0ff06f          	j	114c4 <_vfprintf_r+0xfe0>
   11cf8:	00000413          	li	s0,0
   11cfc:	9f1ff06f          	j	116ec <_vfprintf_r+0x1208>
   11d00:	02d00613          	li	a2,45
   11d04:	00100713          	li	a4,1
   11d08:	00100693          	li	a3,1
   11d0c:	00d71463          	bne	a4,a3,11d14 <_vfprintf_r+0x1830>
   11d10:	d05fe06f          	j	10a14 <_vfprintf_r+0x530>
   11d14:	00200693          	li	a3,2
   11d18:	00d71463          	bne	a4,a3,11d20 <_vfprintf_r+0x183c>
   11d1c:	a31fe06f          	j	1074c <_vfprintf_r+0x268>
   11d20:	b81fe06f          	j	108a0 <_vfprintf_r+0x3bc>
   11d24:	00600713          	li	a4,6
   11d28:	00877463          	bleu	s0,a4,11d30 <_vfprintf_r+0x184c>
   11d2c:	00070413          	mv	s0,a4
   11d30:	02812023          	sw	s0,32(sp)
   11d34:	00040d93          	mv	s11,s0
   11d38:	32044a63          	bltz	s0,1206c <_vfprintf_r+0x1b88>
   11d3c:	00021937          	lui	s2,0x21
   11d40:	01b12423          	sw	s11,8(sp)
   11d44:	03913423          	sd	s9,40(sp)
   11d48:	00000613          	li	a2,0
   11d4c:	00000413          	li	s0,0
   11d50:	04012623          	sw	zero,76(sp)
   11d54:	b2890913          	addi	s2,s2,-1240 # 20b28 <zeroes.4123+0x68>
   11d58:	e45fe06f          	j	10b9c <_vfprintf_r+0x6b8>
   11d5c:	0b812703          	lw	a4,184(sp)
   11d60:	05513823          	sd	s5,80(sp)
   11d64:	91cff06f          	j	10e80 <_vfprintf_r+0x99c>
   11d68:	00070c13          	mv	s8,a4
   11d6c:	00000613          	li	a2,0
   11d70:	00200713          	li	a4,2
   11d74:	f95ff06f          	j	11d08 <_vfprintf_r+0x1824>
   11d78:	001c7793          	andi	a5,s8,1
   11d7c:	00b50733          	add	a4,a0,a1
   11d80:	b8079ce3          	bnez	a5,11918 <_vfprintf_r+0x1434>
   11d84:	0a813783          	ld	a5,168(sp)
   11d88:	bc1ff06f          	j	11948 <_vfprintf_r+0x1464>
   11d8c:	02d00793          	li	a5,45
   11d90:	08f107a3          	sb	a5,143(sp)
   11d94:	02d00613          	li	a2,45
   11d98:	9f8ff06f          	j	10f90 <_vfprintf_r+0xaac>
   11d9c:	00021937          	lui	s2,0x21
   11da0:	af090913          	addi	s2,s2,-1296 # 20af0 <zeroes.4123+0x30>
   11da4:	d95ff06f          	j	11b38 <_vfprintf_r+0x1654>
   11da8:	001c7793          	andi	a5,s8,1
   11dac:	26079a63          	bnez	a5,12020 <_vfprintf_r+0x1b3c>
   11db0:	0a813783          	ld	a5,168(sp)
   11db4:	412787b3          	sub	a5,a5,s2
   11db8:	06f12823          	sw	a5,112(sp)
   11dbc:	35ad9c63          	bne	s11,s10,12114 <_vfprintf_r+0x1c30>
   11dc0:	09812783          	lw	a5,152(sp)
   11dc4:	ffd00713          	li	a4,-3
   11dc8:	02e7cc63          	blt	a5,a4,11e00 <_vfprintf_r+0x191c>
   11dcc:	02f44a63          	blt	s0,a5,11e00 <_vfprintf_r+0x191c>
   11dd0:	04f12623          	sw	a5,76(sp)
   11dd4:	b9dff06f          	j	11970 <_vfprintf_r+0x148c>
   11dd8:	02d00713          	li	a4,45
   11ddc:	08e107a3          	sb	a4,143(sp)
   11de0:	00f12423          	sw	a5,8(sp)
   11de4:	00012c03          	lw	s8,0(sp)
   11de8:	02d00613          	li	a2,45
   11dec:	00000413          	li	s0,0
   11df0:	b0dfe06f          	j	108fc <_vfprintf_r+0x418>
   11df4:	0b812703          	lw	a4,184(sp)
   11df8:	00913823          	sd	s1,16(sp)
   11dfc:	d78ff06f          	j	11374 <_vfprintf_r+0xe90>
   11e00:	ffed0d1b          	addiw	s10,s10,-2
   11e04:	fff7879b          	addiw	a5,a5,-1
   11e08:	08f12c23          	sw	a5,152(sp)
   11e0c:	0ba10023          	sb	s10,160(sp)
   11e10:	2c07c863          	bltz	a5,120e0 <_vfprintf_r+0x1bfc>
   11e14:	02b00713          	li	a4,43
   11e18:	0ae100a3          	sb	a4,161(sp)
   11e1c:	00900613          	li	a2,9
   11e20:	16f64463          	blt	a2,a5,11f88 <_vfprintf_r+0x1aa4>
   11e24:	0307879b          	addiw	a5,a5,48
   11e28:	03000713          	li	a4,48
   11e2c:	0af101a3          	sb	a5,163(sp)
   11e30:	0ae10123          	sb	a4,162(sp)
   11e34:	0a410793          	addi	a5,sp,164
   11e38:	0a010713          	addi	a4,sp,160
   11e3c:	40e787bb          	subw	a5,a5,a4
   11e40:	07012703          	lw	a4,112(sp)
   11e44:	06f12a23          	sw	a5,116(sp)
   11e48:	00e787bb          	addw	a5,a5,a4
   11e4c:	02f12023          	sw	a5,32(sp)
   11e50:	00100793          	li	a5,1
   11e54:	26e7d263          	ble	a4,a5,120b8 <_vfprintf_r+0x1bd4>
   11e58:	02012783          	lw	a5,32(sp)
   11e5c:	0017879b          	addiw	a5,a5,1
   11e60:	02f12023          	sw	a5,32(sp)
   11e64:	2607c463          	bltz	a5,120cc <_vfprintf_r+0x1be8>
   11e68:	04012623          	sw	zero,76(sp)
   11e6c:	b2dff06f          	j	11998 <_vfprintf_r+0x14b4>
   11e70:	00812423          	sw	s0,8(sp)
   11e74:	02812023          	sw	s0,32(sp)
   11e78:	08f14603          	lbu	a2,143(sp)
   11e7c:	03913423          	sd	s9,40(sp)
   11e80:	00000413          	li	s0,0
   11e84:	04012623          	sw	zero,76(sp)
   11e88:	a71fe06f          	j	108f8 <_vfprintf_r+0x414>
   11e8c:	0b010613          	addi	a2,sp,176
   11e90:	000a0593          	mv	a1,s4
   11e94:	000b8513          	mv	a0,s7
   11e98:	0e1090ef          	jal	1b778 <__sprint_r>
   11e9c:	00050463          	beqz	a0,11ea4 <_vfprintf_r+0x19c0>
   11ea0:	955fe06f          	j	107f4 <_vfprintf_r+0x310>
   11ea4:	09812403          	lw	s0,152(sp)
   11ea8:	0c013783          	ld	a5,192(sp)
   11eac:	0b812703          	lw	a4,184(sp)
   11eb0:	000b0893          	mv	a7,s6
   11eb4:	be9ff06f          	j	11a9c <_vfprintf_r+0x15b8>
   11eb8:	9e0410e3          	bnez	s0,11898 <_vfprintf_r+0x13b4>
   11ebc:	00090413          	mv	s0,s2
   11ec0:	9d9ff06f          	j	11898 <_vfprintf_r+0x13b4>
   11ec4:	00600413          	li	s0,6
   11ec8:	9d1ff06f          	j	11898 <_vfprintf_r+0x13b4>
   11ecc:	228405d3          	fmv.d	fa1,fs0
   11ed0:	09810713          	addi	a4,sp,152
   11ed4:	0a810813          	addi	a6,sp,168
   11ed8:	09c10793          	addi	a5,sp,156
   11edc:	00040693          	mv	a3,s0
   11ee0:	00300613          	li	a2,3
   11ee4:	000b8513          	mv	a0,s7
   11ee8:	01113423          	sd	a7,8(sp)
   11eec:	2f5010ef          	jal	139e0 <_dtoa_r>
   11ef0:	00813883          	ld	a7,8(sp)
   11ef4:	00040713          	mv	a4,s0
   11ef8:	00050913          	mv	s2,a0
   11efc:	00e50733          	add	a4,a0,a4
   11f00:	00040593          	mv	a1,s0
   11f04:	00094683          	lbu	a3,0(s2)
   11f08:	03000793          	li	a5,48
   11f0c:	14f68063          	beq	a3,a5,1204c <_vfprintf_r+0x1b68>
   11f10:	09812583          	lw	a1,152(sp)
   11f14:	00b70733          	add	a4,a4,a1
   11f18:	a01ff06f          	j	11918 <_vfprintf_r+0x1434>
   11f1c:	22841453          	fneg.d	fs0,fs0
   11f20:	02d00c93          	li	s9,45
   11f24:	991ff06f          	j	118b4 <_vfprintf_r+0x13d0>
   11f28:	04c12703          	lw	a4,76(sp)
   11f2c:	00100793          	li	a5,1
   11f30:	1ae05263          	blez	a4,120d4 <_vfprintf_r+0x1bf0>
   11f34:	07012703          	lw	a4,112(sp)
   11f38:	00e787bb          	addw	a5,a5,a4
   11f3c:	02f12023          	sw	a5,32(sp)
   11f40:	0007ce63          	bltz	a5,11f5c <_vfprintf_r+0x1a78>
   11f44:	06700d13          	li	s10,103
   11f48:	a51ff06f          	j	11998 <_vfprintf_r+0x14b4>
   11f4c:	04c12783          	lw	a5,76(sp)
   11f50:	0017879b          	addiw	a5,a5,1
   11f54:	02f12023          	sw	a5,32(sp)
   11f58:	fe07d6e3          	bgez	a5,11f44 <_vfprintf_r+0x1a60>
   11f5c:	00000793          	li	a5,0
   11f60:	06700d13          	li	s10,103
   11f64:	a35ff06f          	j	11998 <_vfprintf_r+0x14b4>
   11f68:	09812783          	lw	a5,152(sp)
   11f6c:	04f12623          	sw	a5,76(sp)
   11f70:	12f05263          	blez	a5,12094 <_vfprintf_r+0x1bb0>
   11f74:	0a041e63          	bnez	s0,12030 <_vfprintf_r+0x1b4c>
   11f78:	001c7c13          	andi	s8,s8,1
   11f7c:	0a0c1a63          	bnez	s8,12030 <_vfprintf_r+0x1b4c>
   11f80:	02f12023          	sw	a5,32(sp)
   11f84:	a15ff06f          	j	11998 <_vfprintf_r+0x14b4>
   11f88:	0af10593          	addi	a1,sp,175
   11f8c:	00058713          	mv	a4,a1
   11f90:	00a00513          	li	a0,10
   11f94:	02a7e6bb          	remw	a3,a5,a0
   11f98:	fff70713          	addi	a4,a4,-1
   11f9c:	02a7c7bb          	divw	a5,a5,a0
   11fa0:	0306869b          	addiw	a3,a3,48
   11fa4:	00d70023          	sb	a3,0(a4)
   11fa8:	fef646e3          	blt	a2,a5,11f94 <_vfprintf_r+0x1ab0>
   11fac:	0307879b          	addiw	a5,a5,48
   11fb0:	0ff7f793          	andi	a5,a5,255
   11fb4:	fff70693          	addi	a3,a4,-1
   11fb8:	fef70fa3          	sb	a5,-1(a4)
   11fbc:	16b6f863          	bleu	a1,a3,1212c <_vfprintf_r+0x1c48>
   11fc0:	0a210613          	addi	a2,sp,162
   11fc4:	0080006f          	j	11fcc <_vfprintf_r+0x1ae8>
   11fc8:	0006c783          	lbu	a5,0(a3)
   11fcc:	00160613          	addi	a2,a2,1
   11fd0:	00168693          	addi	a3,a3,1
   11fd4:	fef60fa3          	sb	a5,-1(a2)
   11fd8:	feb698e3          	bne	a3,a1,11fc8 <_vfprintf_r+0x1ae4>
   11fdc:	0b010793          	addi	a5,sp,176
   11fe0:	40e787b3          	sub	a5,a5,a4
   11fe4:	0a210713          	addi	a4,sp,162
   11fe8:	00f707b3          	add	a5,a4,a5
   11fec:	e4dff06f          	j	11e38 <_vfprintf_r+0x1954>
   11ff0:	228405d3          	fmv.d	fa1,fs0
   11ff4:	0a810813          	addi	a6,sp,168
   11ff8:	09c10793          	addi	a5,sp,156
   11ffc:	09810713          	addi	a4,sp,152
   12000:	00040693          	mv	a3,s0
   12004:	00300613          	li	a2,3
   12008:	000b8513          	mv	a0,s7
   1200c:	01113423          	sd	a7,8(sp)
   12010:	1d1010ef          	jal	139e0 <_dtoa_r>
   12014:	00813883          	ld	a7,8(sp)
   12018:	00050913          	mv	s2,a0
   1201c:	00040593          	mv	a1,s0
   12020:	04600793          	li	a5,70
   12024:	00b90733          	add	a4,s2,a1
   12028:	ecfd0ee3          	beq	s10,a5,11f04 <_vfprintf_r+0x1a20>
   1202c:	8edff06f          	j	11918 <_vfprintf_r+0x1434>
   12030:	04c12783          	lw	a5,76(sp)
   12034:	0014041b          	addiw	s0,s0,1
   12038:	008787bb          	addw	a5,a5,s0
   1203c:	02f12023          	sw	a5,32(sp)
   12040:	9407dce3          	bgez	a5,11998 <_vfprintf_r+0x14b4>
   12044:	00000793          	li	a5,0
   12048:	951ff06f          	j	11998 <_vfprintf_r+0x14b4>
   1204c:	f20007d3          	fmv.d.x	fa5,zero
   12050:	a2f427d3          	feq.d	a5,fs0,fa5
   12054:	ea079ee3          	bnez	a5,11f10 <_vfprintf_r+0x1a2c>
   12058:	00100793          	li	a5,1
   1205c:	40b785bb          	subw	a1,a5,a1
   12060:	08b12c23          	sw	a1,152(sp)
   12064:	00b70733          	add	a4,a4,a1
   12068:	8b1ff06f          	j	11918 <_vfprintf_r+0x1434>
   1206c:	00000d93          	li	s11,0
   12070:	ccdff06f          	j	11d3c <_vfprintf_r+0x1858>
   12074:	02813783          	ld	a5,40(sp)
   12078:	0007a403          	lw	s0,0(a5)
   1207c:	00878793          	addi	a5,a5,8
   12080:	02f13423          	sd	a5,40(sp)
   12084:	00044463          	bltz	s0,1208c <_vfprintf_r+0x1ba8>
   12088:	e18fe06f          	j	106a0 <_vfprintf_r+0x1bc>
   1208c:	fff00413          	li	s0,-1
   12090:	e10fe06f          	j	106a0 <_vfprintf_r+0x1bc>
   12094:	00041a63          	bnez	s0,120a8 <_vfprintf_r+0x1bc4>
   12098:	00100793          	li	a5,1
   1209c:	00fc7c33          	and	s8,s8,a5
   120a0:	02f12023          	sw	a5,32(sp)
   120a4:	8e0c0ae3          	beqz	s8,11998 <_vfprintf_r+0x14b4>
   120a8:	0024079b          	addiw	a5,s0,2
   120ac:	02f12023          	sw	a5,32(sp)
   120b0:	8e07d4e3          	bgez	a5,11998 <_vfprintf_r+0x14b4>
   120b4:	f91ff06f          	j	12044 <_vfprintf_r+0x1b60>
   120b8:	00fc7c33          	and	s8,s8,a5
   120bc:	d80c1ee3          	bnez	s8,11e58 <_vfprintf_r+0x1974>
   120c0:	02012703          	lw	a4,32(sp)
   120c4:	00070793          	mv	a5,a4
   120c8:	da0750e3          	bgez	a4,11e68 <_vfprintf_r+0x1984>
   120cc:	00000793          	li	a5,0
   120d0:	d99ff06f          	j	11e68 <_vfprintf_r+0x1984>
   120d4:	00200793          	li	a5,2
   120d8:	40e787bb          	subw	a5,a5,a4
   120dc:	e59ff06f          	j	11f34 <_vfprintf_r+0x1a50>
   120e0:	02d00713          	li	a4,45
   120e4:	40f007bb          	negw	a5,a5
   120e8:	0ae100a3          	sb	a4,161(sp)
   120ec:	d31ff06f          	j	11e1c <_vfprintf_r+0x1938>
   120f0:	08b107a3          	sb	a1,143(sp)
   120f4:	ed9fe06f          	j	10fcc <_vfprintf_r+0xae8>
   120f8:	00000793          	li	a5,0
   120fc:	891ff06f          	j	1198c <_vfprintf_r+0x14a8>
   12100:	08b107a3          	sb	a1,143(sp)
   12104:	010c6c13          	ori	s8,s8,16
   12108:	f2dfe06f          	j	11034 <_vfprintf_r+0xb50>
   1210c:	08b107a3          	sb	a1,143(sp)
   12110:	ef5fe06f          	j	11004 <_vfprintf_r+0xb20>
   12114:	09812783          	lw	a5,152(sp)
   12118:	cedff06f          	j	11e04 <_vfprintf_r+0x1920>
   1211c:	08b107a3          	sb	a1,143(sp)
   12120:	e2dfe06f          	j	10f4c <_vfprintf_r+0xa68>
   12124:	08b107a3          	sb	a1,143(sp)
   12128:	dd5fe06f          	j	10efc <_vfprintf_r+0xa18>
   1212c:	0a210793          	addi	a5,sp,162
   12130:	d09ff06f          	j	11e38 <_vfprintf_r+0x1954>
   12134:	08b107a3          	sb	a1,143(sp)
   12138:	f41fe06f          	j	11078 <_vfprintf_r+0xb94>
   1213c:	08b107a3          	sb	a1,143(sp)
   12140:	f28fe06f          	j	10868 <_vfprintf_r+0x384>
   12144:	08b107a3          	sb	a1,143(sp)
   12148:	9c5fe06f          	j	10b0c <_vfprintf_r+0x628>
   1214c:	08b107a3          	sb	a1,143(sp)
   12150:	010c6c13          	ori	s8,s8,16
   12154:	979fe06f          	j	10acc <_vfprintf_r+0x5e8>
   12158:	08b107a3          	sb	a1,143(sp)
   1215c:	010c6c13          	ori	s8,s8,16
   12160:	929fe06f          	j	10a88 <_vfprintf_r+0x5a4>
   12164:	08b107a3          	sb	a1,143(sp)
   12168:	881fe06f          	j	109e8 <_vfprintf_r+0x504>

000000000001216c <vfprintf>:
   1216c:	00060693          	mv	a3,a2
   12170:	00058613          	mv	a2,a1
   12174:	00050593          	mv	a1,a0
   12178:	8101b503          	ld	a0,-2032(gp) # 23160 <_impure_ptr>
   1217c:	b68fe06f          	j	104e4 <_vfprintf_r>

0000000000012180 <__sbprintf>:
   12180:	0105d783          	lhu	a5,16(a1)
   12184:	0ac5ae03          	lw	t3,172(a1)
   12188:	0125d303          	lhu	t1,18(a1)
   1218c:	0305b883          	ld	a7,48(a1)
   12190:	0405b803          	ld	a6,64(a1)
   12194:	b3010113          	addi	sp,sp,-1232
   12198:	ffd7f793          	andi	a5,a5,-3
   1219c:	40000713          	li	a4,1024
   121a0:	4c813023          	sd	s0,1216(sp)
   121a4:	00f11823          	sh	a5,16(sp)
   121a8:	00058413          	mv	s0,a1
   121ac:	0b010793          	addi	a5,sp,176
   121b0:	00010593          	mv	a1,sp
   121b4:	4a913c23          	sd	s1,1208(sp)
   121b8:	4b213823          	sd	s2,1200(sp)
   121bc:	4c113423          	sd	ra,1224(sp)
   121c0:	00050913          	mv	s2,a0
   121c4:	0bc12623          	sw	t3,172(sp)
   121c8:	00611923          	sh	t1,18(sp)
   121cc:	03113823          	sd	a7,48(sp)
   121d0:	05013023          	sd	a6,64(sp)
   121d4:	00f13023          	sd	a5,0(sp)
   121d8:	00f13c23          	sd	a5,24(sp)
   121dc:	00e12623          	sw	a4,12(sp)
   121e0:	02e12023          	sw	a4,32(sp)
   121e4:	02012423          	sw	zero,40(sp)
   121e8:	afcfe0ef          	jal	104e4 <_vfprintf_r>
   121ec:	00050493          	mv	s1,a0
   121f0:	00054a63          	bltz	a0,12204 <__sbprintf+0x84>
   121f4:	00010593          	mv	a1,sp
   121f8:	00090513          	mv	a0,s2
   121fc:	34d020ef          	jal	14d48 <_fflush_r>
   12200:	02051c63          	bnez	a0,12238 <__sbprintf+0xb8>
   12204:	01015783          	lhu	a5,16(sp)
   12208:	0407f793          	andi	a5,a5,64
   1220c:	00078863          	beqz	a5,1221c <__sbprintf+0x9c>
   12210:	01045783          	lhu	a5,16(s0)
   12214:	0407e793          	ori	a5,a5,64
   12218:	00f41823          	sh	a5,16(s0)
   1221c:	4c813083          	ld	ra,1224(sp)
   12220:	00048513          	mv	a0,s1
   12224:	4c013403          	ld	s0,1216(sp)
   12228:	4b813483          	ld	s1,1208(sp)
   1222c:	4b013903          	ld	s2,1200(sp)
   12230:	4d010113          	addi	sp,sp,1232
   12234:	00008067          	ret
   12238:	fff00493          	li	s1,-1
   1223c:	fc9ff06f          	j	12204 <__sbprintf+0x84>

0000000000012240 <__svfscanf_r>:
   12240:	cb010113          	addi	sp,sp,-848
   12244:	31813023          	sd	s8,768(sp)
   12248:	00058c13          	mv	s8,a1
   1224c:	01059583          	lh	a1,16(a1)
   12250:	34813023          	sd	s0,832(sp)
   12254:	32913c23          	sd	s1,824(sp)
   12258:	31613823          	sd	s6,784(sp)
   1225c:	34113423          	sd	ra,840(sp)
   12260:	33213823          	sd	s2,816(sp)
   12264:	33313423          	sd	s3,808(sp)
   12268:	33413023          	sd	s4,800(sp)
   1226c:	31513c23          	sd	s5,792(sp)
   12270:	31713423          	sd	s7,776(sp)
   12274:	2f913c23          	sd	s9,760(sp)
   12278:	2fa13823          	sd	s10,752(sp)
   1227c:	2fb13423          	sd	s11,744(sp)
   12280:	2c813c27          	fsd	fs0,728(sp)
   12284:	03259793          	slli	a5,a1,0x32
   12288:	00050493          	mv	s1,a0
   1228c:	00060413          	mv	s0,a2
   12290:	00068b13          	mv	s6,a3
   12294:	0207c263          	bltz	a5,122b8 <__svfscanf_r+0x78>
   12298:	0acc2603          	lw	a2,172(s8)
   1229c:	ffffe737          	lui	a4,0xffffe
   122a0:	000026b7          	lui	a3,0x2
   122a4:	fff7071b          	addiw	a4,a4,-1
   122a8:	00d5e5b3          	or	a1,a1,a3
   122ac:	00e67733          	and	a4,a2,a4
   122b0:	00bc1823          	sh	a1,16(s8)
   122b4:	0aec2623          	sw	a4,172(s8)
   122b8:	000207b7          	lui	a5,0x20
   122bc:	07878793          	addi	a5,a5,120 # 20078 <zeroes.4194+0x330>
   122c0:	fffff737          	lui	a4,0xfffff
   122c4:	000209b7          	lui	s3,0x20
   122c8:	00f13c23          	sd	a5,24(sp)
   122cc:	47f7079b          	addiw	a5,a4,1151
   122d0:	02013423          	sd	zero,40(sp)
   122d4:	00012823          	sw	zero,16(sp)
   122d8:	00000b93          	li	s7,0
   122dc:	00012a23          	sw	zero,20(sp)
   122e0:	d5898993          	addi	s3,s3,-680 # 1fd58 <zeroes.4194+0x10>
   122e4:	04f12423          	sw	a5,72(sp)
   122e8:	00044703          	lbu	a4,0(s0)
   122ec:	00140413          	addi	s0,s0,1
   122f0:	06e12223          	sw	a4,100(sp)
   122f4:	00070693          	mv	a3,a4
   122f8:	06070e63          	beqz	a4,12374 <__svfscanf_r+0x134>
   122fc:	8181b503          	ld	a0,-2024(gp) # 23168 <__ctype_ptr__>
   12300:	00e50733          	add	a4,a0,a4
   12304:	00174703          	lbu	a4,1(a4) # fffffffffffff001 <_gp+0xfffffffffffdb6b1>
   12308:	00877713          	andi	a4,a4,8
   1230c:	06070863          	beqz	a4,1237c <__svfscanf_r+0x13c>
   12310:	008c2703          	lw	a4,8(s8)
   12314:	02e05e63          	blez	a4,12350 <__svfscanf_r+0x110>
   12318:	000c3683          	ld	a3,0(s8)
   1231c:	8181b703          	ld	a4,-2024(gp) # 23168 <__ctype_ptr__>
   12320:	0006c603          	lbu	a2,0(a3) # 2000 <_ftext-0xe000>
   12324:	00c70733          	add	a4,a4,a2
   12328:	00174703          	lbu	a4,1(a4)
   1232c:	00877713          	andi	a4,a4,8
   12330:	fa070ce3          	beqz	a4,122e8 <__svfscanf_r+0xa8>
   12334:	008c2703          	lw	a4,8(s8)
   12338:	00168693          	addi	a3,a3,1
   1233c:	00dc3023          	sd	a3,0(s8)
   12340:	fff7071b          	addiw	a4,a4,-1
   12344:	00ec2423          	sw	a4,8(s8)
   12348:	001b8b9b          	addiw	s7,s7,1
   1234c:	fce046e3          	bgtz	a4,12318 <__svfscanf_r+0xd8>
   12350:	000c0593          	mv	a1,s8
   12354:	00048513          	mv	a0,s1
   12358:	5bc050ef          	jal	17914 <__srefill_r>
   1235c:	fa050ee3          	beqz	a0,12318 <__svfscanf_r+0xd8>
   12360:	00044703          	lbu	a4,0(s0)
   12364:	00140413          	addi	s0,s0,1
   12368:	06e12223          	sw	a4,100(sp)
   1236c:	00070693          	mv	a3,a4
   12370:	f80716e3          	bnez	a4,122fc <__svfscanf_r+0xbc>
   12374:	01412503          	lw	a0,20(sp)
   12378:	06c0006f          	j	123e4 <__svfscanf_r+0x1a4>
   1237c:	02500713          	li	a4,37
   12380:	02e69663          	bne	a3,a4,123ac <__svfscanf_r+0x16c>
   12384:	00000a93          	li	s5,0
   12388:	00000913          	li	s2,0
   1238c:	07800613          	li	a2,120
   12390:	00140413          	addi	s0,s0,1
   12394:	fff44683          	lbu	a3,-1(s0)
   12398:	1ad66a63          	bltu	a2,a3,1254c <__svfscanf_r+0x30c>
   1239c:	00269713          	slli	a4,a3,0x2
   123a0:	01370733          	add	a4,a4,s3
   123a4:	00072703          	lw	a4,0(a4)
   123a8:	00070067          	jr	a4
   123ac:	008c2703          	lw	a4,8(s8)
   123b0:	58e05a63          	blez	a4,12944 <__svfscanf_r+0x704>
   123b4:	000c3703          	ld	a4,0(s8)
   123b8:	fff44683          	lbu	a3,-1(s0)
   123bc:	00074603          	lbu	a2,0(a4)
   123c0:	fad61ae3          	bne	a2,a3,12374 <__svfscanf_r+0x134>
   123c4:	008c2683          	lw	a3,8(s8)
   123c8:	00170713          	addi	a4,a4,1
   123cc:	00ec3023          	sd	a4,0(s8)
   123d0:	fff6871b          	addiw	a4,a3,-1
   123d4:	00ec2423          	sw	a4,8(s8)
   123d8:	001b8b9b          	addiw	s7,s7,1
   123dc:	f0dff06f          	j	122e8 <__svfscanf_r+0xa8>
   123e0:	fff00513          	li	a0,-1
   123e4:	34813083          	ld	ra,840(sp)
   123e8:	34013403          	ld	s0,832(sp)
   123ec:	33813483          	ld	s1,824(sp)
   123f0:	33013903          	ld	s2,816(sp)
   123f4:	32813983          	ld	s3,808(sp)
   123f8:	32013a03          	ld	s4,800(sp)
   123fc:	31813a83          	ld	s5,792(sp)
   12400:	31013b03          	ld	s6,784(sp)
   12404:	30813b83          	ld	s7,776(sp)
   12408:	30013c03          	ld	s8,768(sp)
   1240c:	2f813c83          	ld	s9,760(sp)
   12410:	2f013d03          	ld	s10,752(sp)
   12414:	2e813d83          	ld	s11,744(sp)
   12418:	2d813407          	fld	fs0,728(sp)
   1241c:	35010113          	addi	sp,sp,848
   12420:	00008067          	ret
   12424:	008c2703          	lw	a4,8(s8)
   12428:	00019a37          	lui	s4,0x19
   1242c:	5c4a0793          	addi	a5,s4,1476 # 195c4 <_strtoul_r>
   12430:	02f13423          	sd	a5,40(sp)
   12434:	00a00793          	li	a5,10
   12438:	00f12823          	sw	a5,16(sp)
   1243c:	00300c93          	li	s9,3
   12440:	02e05e63          	blez	a4,1247c <__svfscanf_r+0x23c>
   12444:	000c3683          	ld	a3,0(s8)
   12448:	00c0006f          	j	12454 <__svfscanf_r+0x214>
   1244c:	00168693          	addi	a3,a3,1
   12450:	00dc3023          	sd	a3,0(s8)
   12454:	0006c603          	lbu	a2,0(a3)
   12458:	00c50733          	add	a4,a0,a2
   1245c:	00174703          	lbu	a4,1(a4)
   12460:	00877593          	andi	a1,a4,8
   12464:	58058063          	beqz	a1,129e4 <__svfscanf_r+0x7a4>
   12468:	008c2703          	lw	a4,8(s8)
   1246c:	001b8b9b          	addiw	s7,s7,1
   12470:	fff7071b          	addiw	a4,a4,-1
   12474:	00ec2423          	sw	a4,8(s8)
   12478:	fce04ae3          	bgtz	a4,1244c <__svfscanf_r+0x20c>
   1247c:	000c0593          	mv	a1,s8
   12480:	00048513          	mv	a0,s1
   12484:	490050ef          	jal	17914 <__srefill_r>
   12488:	04051863          	bnez	a0,124d8 <__svfscanf_r+0x298>
   1248c:	8181b503          	ld	a0,-2024(gp) # 23168 <__ctype_ptr__>
   12490:	fb5ff06f          	j	12444 <__svfscanf_r+0x204>
   12494:	008c2703          	lw	a4,8(s8)
   12498:	00200c93          	li	s9,2
   1249c:	fae044e3          	bgtz	a4,12444 <__svfscanf_r+0x204>
   124a0:	fddff06f          	j	1247c <__svfscanf_r+0x23c>
   124a4:	008c2703          	lw	a4,8(s8)
   124a8:	220aea93          	ori	s5,s5,544
   124ac:	00019a37          	lui	s4,0x19
   124b0:	5c4a0793          	addi	a5,s4,1476 # 195c4 <_strtoul_r>
   124b4:	02f13423          	sd	a5,40(sp)
   124b8:	01000793          	li	a5,16
   124bc:	00f12823          	sw	a5,16(sp)
   124c0:	00300c93          	li	s9,3
   124c4:	f8e040e3          	bgtz	a4,12444 <__svfscanf_r+0x204>
   124c8:	000c0593          	mv	a1,s8
   124cc:	00048513          	mv	a0,s1
   124d0:	444050ef          	jal	17914 <__srefill_r>
   124d4:	fa050ce3          	beqz	a0,1248c <__svfscanf_r+0x24c>
   124d8:	01412703          	lw	a4,20(sp)
   124dc:	fff00513          	li	a0,-1
   124e0:	f00702e3          	beqz	a4,123e4 <__svfscanf_r+0x1a4>
   124e4:	010c5783          	lhu	a5,16(s8)
   124e8:	0407f793          	andi	a5,a5,64
   124ec:	ee079ce3          	bnez	a5,123e4 <__svfscanf_r+0x1a4>
   124f0:	00070513          	mv	a0,a4
   124f4:	ef1ff06f          	j	123e4 <__svfscanf_r+0x1a4>
   124f8:	008c2703          	lw	a4,8(s8)
   124fc:	4ce05863          	blez	a4,129cc <__svfscanf_r+0x78c>
   12500:	00019a37          	lui	s4,0x19
   12504:	5c4a0793          	addi	a5,s4,1476 # 195c4 <_strtoul_r>
   12508:	02f13423          	sd	a5,40(sp)
   1250c:	00800793          	li	a5,8
   12510:	00f12823          	sw	a5,16(sp)
   12514:	00300c93          	li	s9,3
   12518:	f2dff06f          	j	12444 <__svfscanf_r+0x204>
   1251c:	010af713          	andi	a4,s5,16
   12520:	dc0714e3          	bnez	a4,122e8 <__svfscanf_r+0xa8>
   12524:	004af713          	andi	a4,s5,4
   12528:	42070e63          	beqz	a4,12964 <__svfscanf_r+0x724>
   1252c:	000b3703          	ld	a4,0(s6)
   12530:	008b0b13          	addi	s6,s6,8
   12534:	01771023          	sh	s7,0(a4)
   12538:	db1ff06f          	j	122e8 <__svfscanf_r+0xa8>
   1253c:	00140413          	addi	s0,s0,1
   12540:	fff44683          	lbu	a3,-1(s0)
   12544:	001aea93          	ori	s5,s5,1
   12548:	e4d67ae3          	bleu	a3,a2,1239c <__svfscanf_r+0x15c>
   1254c:	00d506b3          	add	a3,a0,a3
   12550:	0016c703          	lbu	a4,1(a3)
   12554:	00100693          	li	a3,1
   12558:	00377713          	andi	a4,a4,3
   1255c:	3ed70e63          	beq	a4,a3,12958 <__svfscanf_r+0x718>
   12560:	008c2703          	lw	a4,8(s8)
   12564:	1440006f          	j	126a8 <__svfscanf_r+0x468>
   12568:	004aea93          	ori	s5,s5,4
   1256c:	e25ff06f          	j	12390 <__svfscanf_r+0x150>
   12570:	008c2703          	lw	a4,8(s8)
   12574:	40e05463          	blez	a4,1297c <__svfscanf_r+0x73c>
   12578:	00019a37          	lui	s4,0x19
   1257c:	3d4a0793          	addi	a5,s4,980 # 193d4 <_strtol_r>
   12580:	02f13423          	sd	a5,40(sp)
   12584:	00a00793          	li	a5,10
   12588:	00f12823          	sw	a5,16(sp)
   1258c:	00300c93          	li	s9,3
   12590:	eb5ff06f          	j	12444 <__svfscanf_r+0x204>
   12594:	008c2703          	lw	a4,8(s8)
   12598:	34e05663          	blez	a4,128e4 <__svfscanf_r+0x6a4>
   1259c:	00091463          	bnez	s2,125a4 <__svfscanf_r+0x364>
   125a0:	00100913          	li	s2,1
   125a4:	001af713          	andi	a4,s5,1
   125a8:	22071063          	bnez	a4,127c8 <__svfscanf_r+0x588>
   125ac:	010afa93          	andi	s5,s5,16
   125b0:	360a8063          	beqz	s5,12910 <__svfscanf_r+0x6d0>
   125b4:	00000a93          	li	s5,0
   125b8:	0280006f          	j	125e0 <__svfscanf_r+0x3a0>
   125bc:	000c3683          	ld	a3,0(s8)
   125c0:	000c0593          	mv	a1,s8
   125c4:	00048513          	mv	a0,s1
   125c8:	00e686b3          	add	a3,a3,a4
   125cc:	00dc3023          	sd	a3,0(s8)
   125d0:	00ea8ab3          	add	s5,s5,a4
   125d4:	40e90933          	sub	s2,s2,a4
   125d8:	33c050ef          	jal	17914 <__srefill_r>
   125dc:	30051e63          	bnez	a0,128f8 <__svfscanf_r+0x6b8>
   125e0:	008c2703          	lw	a4,8(s8)
   125e4:	0009069b          	sext.w	a3,s2
   125e8:	fcd74ae3          	blt	a4,a3,125bc <__svfscanf_r+0x37c>
   125ec:	000c3603          	ld	a2,0(s8)
   125f0:	40d7073b          	subw	a4,a4,a3
   125f4:	012a8ab3          	add	s5,s5,s2
   125f8:	01260333          	add	t1,a2,s2
   125fc:	00ec2423          	sw	a4,8(s8)
   12600:	006c3023          	sd	t1,0(s8)
   12604:	017a8bbb          	addw	s7,s5,s7
   12608:	ce1ff06f          	j	122e8 <__svfscanf_r+0xa8>
   1260c:	00040593          	mv	a1,s0
   12610:	07010513          	addi	a0,sp,112
   12614:	548050ef          	jal	17b5c <__sccl>
   12618:	008c2703          	lw	a4,8(s8)
   1261c:	00050413          	mv	s0,a0
   12620:	38e05063          	blez	a4,129a0 <__svfscanf_r+0x760>
   12624:	000c3683          	ld	a3,0(s8)
   12628:	0006c703          	lbu	a4,0(a3)
   1262c:	10090263          	beqz	s2,12730 <__svfscanf_r+0x4f0>
   12630:	010afa93          	andi	s5,s5,16
   12634:	100a8463          	beqz	s5,1273c <__svfscanf_r+0x4fc>
   12638:	00000a93          	li	s5,0
   1263c:	0080006f          	j	12644 <__svfscanf_r+0x404>
   12640:	0006c703          	lbu	a4,0(a3)
   12644:	2d010793          	addi	a5,sp,720
   12648:	00e78733          	add	a4,a5,a4
   1264c:	da074703          	lbu	a4,-608(a4)
   12650:	2a070a63          	beqz	a4,12904 <__svfscanf_r+0x6c4>
   12654:	008c2703          	lw	a4,8(s8)
   12658:	00168693          	addi	a3,a3,1
   1265c:	00dc3023          	sd	a3,0(s8)
   12660:	fff7071b          	addiw	a4,a4,-1
   12664:	00ec2423          	sw	a4,8(s8)
   12668:	fff90913          	addi	s2,s2,-1
   1266c:	001a8a9b          	addiw	s5,s5,1
   12670:	14090863          	beqz	s2,127c0 <__svfscanf_r+0x580>
   12674:	fce046e3          	bgtz	a4,12640 <__svfscanf_r+0x400>
   12678:	000c0593          	mv	a1,s8
   1267c:	00048513          	mv	a0,s1
   12680:	294050ef          	jal	17914 <__srefill_r>
   12684:	12051e63          	bnez	a0,127c0 <__svfscanf_r+0x580>
   12688:	000c3683          	ld	a3,0(s8)
   1268c:	fb5ff06f          	j	12640 <__svfscanf_r+0x400>
   12690:	008c2703          	lw	a4,8(s8)
   12694:	00400c93          	li	s9,4
   12698:	dae046e3          	bgtz	a4,12444 <__svfscanf_r+0x204>
   1269c:	de1ff06f          	j	1247c <__svfscanf_r+0x23c>
   126a0:	008c2703          	lw	a4,8(s8)
   126a4:	001aea93          	ori	s5,s5,1
   126a8:	00019a37          	lui	s4,0x19
   126ac:	3d4a0793          	addi	a5,s4,980 # 193d4 <_strtol_r>
   126b0:	d81ff06f          	j	12430 <__svfscanf_r+0x1f0>
   126b4:	00019a37          	lui	s4,0x19
   126b8:	5c4a0793          	addi	a5,s4,1476 # 195c4 <_strtoul_r>
   126bc:	008c2703          	lw	a4,8(s8)
   126c0:	02f13423          	sd	a5,40(sp)
   126c4:	00800793          	li	a5,8
   126c8:	00f12823          	sw	a5,16(sp)
   126cc:	001aea93          	ori	s5,s5,1
   126d0:	00300c93          	li	s9,3
   126d4:	d6e048e3          	bgtz	a4,12444 <__svfscanf_r+0x204>
   126d8:	da5ff06f          	j	1247c <__svfscanf_r+0x23c>
   126dc:	002aea93          	ori	s5,s5,2
   126e0:	cb1ff06f          	j	12390 <__svfscanf_r+0x150>
   126e4:	008c2703          	lw	a4,8(s8)
   126e8:	200aea93          	ori	s5,s5,512
   126ec:	dc1ff06f          	j	124ac <__svfscanf_r+0x26c>
   126f0:	00191713          	slli	a4,s2,0x1
   126f4:	00391313          	slli	t1,s2,0x3
   126f8:	00670333          	add	t1,a4,t1
   126fc:	fd068693          	addi	a3,a3,-48
   12700:	00668933          	add	s2,a3,t1
   12704:	c8dff06f          	j	12390 <__svfscanf_r+0x150>
   12708:	010aea93          	ori	s5,s5,16
   1270c:	c85ff06f          	j	12390 <__svfscanf_r+0x150>
   12710:	008c2703          	lw	a4,8(s8)
   12714:	2ae05063          	blez	a4,129b4 <__svfscanf_r+0x774>
   12718:	00019a37          	lui	s4,0x19
   1271c:	3d4a0793          	addi	a5,s4,980 # 193d4 <_strtol_r>
   12720:	02f13423          	sd	a5,40(sp)
   12724:	00012823          	sw	zero,16(sp)
   12728:	00300c93          	li	s9,3
   1272c:	d19ff06f          	j	12444 <__svfscanf_r+0x204>
   12730:	010afa93          	andi	s5,s5,16
   12734:	fff00913          	li	s2,-1
   12738:	f00a90e3          	bnez	s5,12638 <__svfscanf_r+0x3f8>
   1273c:	000b3a83          	ld	s5,0(s6)
   12740:	008b0b13          	addi	s6,s6,8
   12744:	012a8d33          	add	s10,s5,s2
   12748:	000a8c93          	mv	s9,s5
   1274c:	00c0006f          	j	12758 <__svfscanf_r+0x518>
   12750:	000c3683          	ld	a3,0(s8)
   12754:	0006c703          	lbu	a4,0(a3)
   12758:	2d010793          	addi	a5,sp,720
   1275c:	00e78733          	add	a4,a5,a4
   12760:	da074703          	lbu	a4,-608(a4)
   12764:	04070263          	beqz	a4,127a8 <__svfscanf_r+0x568>
   12768:	008c2703          	lw	a4,8(s8)
   1276c:	00168613          	addi	a2,a3,1
   12770:	00cc3023          	sd	a2,0(s8)
   12774:	fff7071b          	addiw	a4,a4,-1
   12778:	00ec2423          	sw	a4,8(s8)
   1277c:	0006c703          	lbu	a4,0(a3)
   12780:	001c8c93          	addi	s9,s9,1
   12784:	feec8fa3          	sb	a4,-1(s9)
   12788:	03ac8063          	beq	s9,s10,127a8 <__svfscanf_r+0x568>
   1278c:	008c2703          	lw	a4,8(s8)
   12790:	fce040e3          	bgtz	a4,12750 <__svfscanf_r+0x510>
   12794:	000c0593          	mv	a1,s8
   12798:	00048513          	mv	a0,s1
   1279c:	178050ef          	jal	17914 <__srefill_r>
   127a0:	fa0508e3          	beqz	a0,12750 <__svfscanf_r+0x510>
   127a4:	d39a8ae3          	beq	s5,s9,124d8 <__svfscanf_r+0x298>
   127a8:	415c8abb          	subw	s5,s9,s5
   127ac:	bc0a84e3          	beqz	s5,12374 <__svfscanf_r+0x134>
   127b0:	01412783          	lw	a5,20(sp)
   127b4:	000c8023          	sb	zero,0(s9)
   127b8:	0017879b          	addiw	a5,a5,1
   127bc:	00f12a23          	sw	a5,20(sp)
   127c0:	015b8bbb          	addw	s7,s7,s5
   127c4:	b25ff06f          	j	122e8 <__svfscanf_r+0xa8>
   127c8:	010af793          	andi	a5,s5,16
   127cc:	06810c93          	addi	s9,sp,104
   127d0:	00800613          	li	a2,8
   127d4:	00000593          	li	a1,0
   127d8:	000c8513          	mv	a0,s9
   127dc:	00078a13          	mv	s4,a5
   127e0:	00f12423          	sw	a5,8(sp)
   127e4:	00000a93          	li	s5,0
   127e8:	7c9030ef          	jal	167b0 <memset>
   127ec:	0e0a0663          	beqz	s4,128d8 <__svfscanf_r+0x698>
   127f0:	00000a13          	li	s4,0
   127f4:	fff00d13          	li	s10,-1
   127f8:	1f4030ef          	jal	159ec <__locale_mb_cur_max>
   127fc:	cd450ee3          	beq	a0,s4,124d8 <__svfscanf_r+0x298>
   12800:	000c3683          	ld	a3,0(s8)
   12804:	008c2603          	lw	a2,8(s8)
   12808:	001a0d9b          	addiw	s11,s4,1
   1280c:	0006ce83          	lbu	t4,0(a3)
   12810:	fff6061b          	addiw	a2,a2,-1
   12814:	00168693          	addi	a3,a3,1
   12818:	2d010793          	addi	a5,sp,720
   1281c:	014788b3          	add	a7,a5,s4
   12820:	00cc2423          	sw	a2,8(s8)
   12824:	00dc3023          	sd	a3,0(s8)
   12828:	000c8713          	mv	a4,s9
   1282c:	000d8693          	mv	a3,s11
   12830:	17010613          	addi	a2,sp,368
   12834:	000a8593          	mv	a1,s5
   12838:	00048513          	mv	a0,s1
   1283c:	ebd88023          	sb	t4,-352(a7)
   12840:	30d030ef          	jal	1634c <_mbrtowc_r>
   12844:	c9a50ae3          	beq	a0,s10,124d8 <__svfscanf_r+0x298>
   12848:	04051263          	bnez	a0,1288c <__svfscanf_r+0x64c>
   1284c:	00812783          	lw	a5,8(sp)
   12850:	06079463          	bnez	a5,128b8 <__svfscanf_r+0x678>
   12854:	000aa023          	sw	zero,0(s5)
   12858:	01bb8bbb          	addw	s7,s7,s11
   1285c:	fff90913          	addi	s2,s2,-1
   12860:	004a8a93          	addi	s5,s5,4
   12864:	008c2683          	lw	a3,8(s8)
   12868:	00000a13          	li	s4,0
   1286c:	02d05a63          	blez	a3,128a0 <__svfscanf_r+0x660>
   12870:	f80914e3          	bnez	s2,127f8 <__svfscanf_r+0x5b8>
   12874:	00812783          	lw	a5,8(sp)
   12878:	0017ba93          	seqz	s5,a5
   1287c:	01412783          	lw	a5,20(sp)
   12880:	015787bb          	addw	a5,a5,s5
   12884:	00f12a23          	sw	a5,20(sp)
   12888:	a61ff06f          	j	122e8 <__svfscanf_r+0xa8>
   1288c:	ffe00793          	li	a5,-2
   12890:	02f51a63          	bne	a0,a5,128c4 <__svfscanf_r+0x684>
   12894:	008c2703          	lw	a4,8(s8)
   12898:	000d8a13          	mv	s4,s11
   1289c:	f4e04ee3          	bgtz	a4,127f8 <__svfscanf_r+0x5b8>
   128a0:	000c0593          	mv	a1,s8
   128a4:	00048513          	mv	a0,s1
   128a8:	06c050ef          	jal	17914 <__srefill_r>
   128ac:	fc0502e3          	beqz	a0,12870 <__svfscanf_r+0x630>
   128b0:	fc0a02e3          	beqz	s4,12874 <__svfscanf_r+0x634>
   128b4:	c25ff06f          	j	124d8 <__svfscanf_r+0x298>
   128b8:	01bb8bbb          	addw	s7,s7,s11
   128bc:	fff90913          	addi	s2,s2,-1
   128c0:	fa5ff06f          	j	12864 <__svfscanf_r+0x624>
   128c4:	00812783          	lw	a5,8(sp)
   128c8:	01bb8bbb          	addw	s7,s7,s11
   128cc:	fff90913          	addi	s2,s2,-1
   128d0:	f80788e3          	beqz	a5,12860 <__svfscanf_r+0x620>
   128d4:	f91ff06f          	j	12864 <__svfscanf_r+0x624>
   128d8:	000b3a83          	ld	s5,0(s6)
   128dc:	008b0b13          	addi	s6,s6,8
   128e0:	f11ff06f          	j	127f0 <__svfscanf_r+0x5b0>
   128e4:	000c0593          	mv	a1,s8
   128e8:	00048513          	mv	a0,s1
   128ec:	028050ef          	jal	17914 <__srefill_r>
   128f0:	ca0506e3          	beqz	a0,1259c <__svfscanf_r+0x35c>
   128f4:	be5ff06f          	j	124d8 <__svfscanf_r+0x298>
   128f8:	be0a80e3          	beqz	s5,124d8 <__svfscanf_r+0x298>
   128fc:	017a8bbb          	addw	s7,s5,s7
   12900:	9e9ff06f          	j	122e8 <__svfscanf_r+0xa8>
   12904:	a60a88e3          	beqz	s5,12374 <__svfscanf_r+0x134>
   12908:	015b8bbb          	addw	s7,s7,s5
   1290c:	9ddff06f          	j	122e8 <__svfscanf_r+0xa8>
   12910:	000b3583          	ld	a1,0(s6)
   12914:	000c0713          	mv	a4,s8
   12918:	00090693          	mv	a3,s2
   1291c:	00100613          	li	a2,1
   12920:	00048513          	mv	a0,s1
   12924:	011020ef          	jal	15134 <_fread_r>
   12928:	008b0b13          	addi	s6,s6,8
   1292c:	ba0506e3          	beqz	a0,124d8 <__svfscanf_r+0x298>
   12930:	01412783          	lw	a5,20(sp)
   12934:	01750bbb          	addw	s7,a0,s7
   12938:	0017879b          	addiw	a5,a5,1
   1293c:	00f12a23          	sw	a5,20(sp)
   12940:	9a9ff06f          	j	122e8 <__svfscanf_r+0xa8>
   12944:	000c0593          	mv	a1,s8
   12948:	00048513          	mv	a0,s1
   1294c:	7c9040ef          	jal	17914 <__srefill_r>
   12950:	a60502e3          	beqz	a0,123b4 <__svfscanf_r+0x174>
   12954:	b85ff06f          	j	124d8 <__svfscanf_r+0x298>
   12958:	008c2703          	lw	a4,8(s8)
   1295c:	00daeab3          	or	s5,s5,a3
   12960:	d49ff06f          	j	126a8 <__svfscanf_r+0x468>
   12964:	001afa93          	andi	s5,s5,1
   12968:	000b3703          	ld	a4,0(s6)
   1296c:	020a8463          	beqz	s5,12994 <__svfscanf_r+0x754>
   12970:	008b0b13          	addi	s6,s6,8
   12974:	01773023          	sd	s7,0(a4)
   12978:	971ff06f          	j	122e8 <__svfscanf_r+0xa8>
   1297c:	000c0593          	mv	a1,s8
   12980:	00048513          	mv	a0,s1
   12984:	791040ef          	jal	17914 <__srefill_r>
   12988:	b40518e3          	bnez	a0,124d8 <__svfscanf_r+0x298>
   1298c:	8181b503          	ld	a0,-2024(gp) # 23168 <__ctype_ptr__>
   12990:	be9ff06f          	j	12578 <__svfscanf_r+0x338>
   12994:	008b0b13          	addi	s6,s6,8
   12998:	01772023          	sw	s7,0(a4)
   1299c:	94dff06f          	j	122e8 <__svfscanf_r+0xa8>
   129a0:	000c0593          	mv	a1,s8
   129a4:	00048513          	mv	a0,s1
   129a8:	76d040ef          	jal	17914 <__srefill_r>
   129ac:	c6050ce3          	beqz	a0,12624 <__svfscanf_r+0x3e4>
   129b0:	b29ff06f          	j	124d8 <__svfscanf_r+0x298>
   129b4:	000c0593          	mv	a1,s8
   129b8:	00048513          	mv	a0,s1
   129bc:	759040ef          	jal	17914 <__srefill_r>
   129c0:	b0051ce3          	bnez	a0,124d8 <__svfscanf_r+0x298>
   129c4:	8181b503          	ld	a0,-2024(gp) # 23168 <__ctype_ptr__>
   129c8:	d51ff06f          	j	12718 <__svfscanf_r+0x4d8>
   129cc:	000c0593          	mv	a1,s8
   129d0:	00048513          	mv	a0,s1
   129d4:	741040ef          	jal	17914 <__srefill_r>
   129d8:	b00510e3          	bnez	a0,124d8 <__svfscanf_r+0x298>
   129dc:	8181b503          	ld	a0,-2024(gp) # 23168 <__ctype_ptr__>
   129e0:	b21ff06f          	j	12500 <__svfscanf_r+0x2c0>
   129e4:	00300593          	li	a1,3
   129e8:	3ebc8e63          	beq	s9,a1,12de4 <__svfscanf_r+0xba4>
   129ec:	00400613          	li	a2,4
   129f0:	38cc9063          	bne	s9,a2,12d70 <__svfscanf_r+0xb30>
   129f4:	00048513          	mv	a0,s1
   129f8:	010030ef          	jal	15a08 <_localeconv_r>
   129fc:	00053783          	ld	a5,0(a0)
   12a00:	fff90713          	addi	a4,s2,-1
   12a04:	04012623          	sw	zero,76(sp)
   12a08:	04f13023          	sd	a5,64(sp)
   12a0c:	15c00693          	li	a3,348
   12a10:	00e6f863          	bleu	a4,a3,12a20 <__svfscanf_r+0x7e0>
   12a14:	ea39079b          	addiw	a5,s2,-349
   12a18:	04f12623          	sw	a5,76(sp)
   12a1c:	15d00913          	li	s2,349
   12a20:	17010793          	addi	a5,sp,368
   12a24:	00020637          	lui	a2,0x20
   12a28:	780aea13          	ori	s4,s5,1920
   12a2c:	02f13823          	sd	a5,48(sp)
   12a30:	00000c93          	li	s9,0
   12a34:	00000d13          	li	s10,0
   12a38:	04013c23          	sd	zero,88(sp)
   12a3c:	04013823          	sd	zero,80(sp)
   12a40:	00000a93          	li	s5,0
   12a44:	02013c23          	sd	zero,56(sp)
   12a48:	00078d93          	mv	s11,a5
   12a4c:	04e00e93          	li	t4,78
   12a50:	f3c60613          	addi	a2,a2,-196 # 1ff3c <zeroes.4194+0x1f4>
   12a54:	000c3583          	ld	a1,0(s8)
   12a58:	0005c503          	lbu	a0,0(a1)
   12a5c:	fd55071b          	addiw	a4,a0,-43
   12a60:	0ff77f93          	andi	t6,a4,255
   12a64:	2dfee463          	bltu	t4,t6,12d2c <__svfscanf_r+0xaec>
   12a68:	0ff77713          	andi	a4,a4,255
   12a6c:	00271713          	slli	a4,a4,0x2
   12a70:	00c70733          	add	a4,a4,a2
   12a74:	00072703          	lw	a4,0(a4)
   12a78:	00070067          	jr	a4
   12a7c:	019d073b          	addw	a4,s10,s9
   12a80:	02071a63          	bnez	a4,12ab4 <__svfscanf_r+0x874>
   12a84:	e7fa7a13          	andi	s4,s4,-385
   12a88:	00ad8023          	sb	a0,0(s11)
   12a8c:	001d8d93          	addi	s11,s11,1
   12a90:	008c2703          	lw	a4,8(s8)
   12a94:	fff90913          	addi	s2,s2,-1
   12a98:	001b8b9b          	addiw	s7,s7,1
   12a9c:	fff7071b          	addiw	a4,a4,-1
   12aa0:	00ec2423          	sw	a4,8(s8)
   12aa4:	04e05c63          	blez	a4,12afc <__svfscanf_r+0x8bc>
   12aa8:	00158593          	addi	a1,a1,1
   12aac:	00bc3023          	sd	a1,0(s8)
   12ab0:	fa0912e3          	bnez	s2,12a54 <__svfscanf_r+0x814>
   12ab4:	0e0a8263          	beqz	s5,12b98 <__svfscanf_r+0x958>
   12ab8:	effa7a13          	andi	s4,s4,-257
   12abc:	0dc0006f          	j	12b98 <__svfscanf_r+0x958>
   12ac0:	100a7713          	andi	a4,s4,256
   12ac4:	fa070ce3          	beqz	a4,12a7c <__svfscanf_r+0x83c>
   12ac8:	04c12783          	lw	a5,76(sp)
   12acc:	f7fa7a13          	andi	s4,s4,-129
   12ad0:	001a8a93          	addi	s5,s5,1
   12ad4:	fa078ee3          	beqz	a5,12a90 <__svfscanf_r+0x850>
   12ad8:	008c2703          	lw	a4,8(s8)
   12adc:	fff7879b          	addiw	a5,a5,-1
   12ae0:	00190913          	addi	s2,s2,1
   12ae4:	fff7071b          	addiw	a4,a4,-1
   12ae8:	04f12623          	sw	a5,76(sp)
   12aec:	00ec2423          	sw	a4,8(s8)
   12af0:	fff90913          	addi	s2,s2,-1
   12af4:	001b8b9b          	addiw	s7,s7,1
   12af8:	fae048e3          	bgtz	a4,12aa8 <__svfscanf_r+0x868>
   12afc:	000c0593          	mv	a1,s8
   12b00:	00048513          	mv	a0,s1
   12b04:	02c13023          	sd	a2,32(sp)
   12b08:	01d13423          	sd	t4,8(sp)
   12b0c:	609040ef          	jal	17914 <__srefill_r>
   12b10:	00813e83          	ld	t4,8(sp)
   12b14:	02013603          	ld	a2,32(sp)
   12b18:	f8051ee3          	bnez	a0,12ab4 <__svfscanf_r+0x874>
   12b1c:	f2091ce3          	bnez	s2,12a54 <__svfscanf_r+0x814>
   12b20:	f95ff06f          	j	12ab4 <__svfscanf_r+0x874>
   12b24:	00700793          	li	a5,7
   12b28:	f8fc96e3          	bne	s9,a5,12ab4 <__svfscanf_r+0x874>
   12b2c:	00800c93          	li	s9,8
   12b30:	f59ff06f          	j	12a88 <__svfscanf_r+0x848>
   12b34:	080a7713          	andi	a4,s4,128
   12b38:	f6070ee3          	beqz	a4,12ab4 <__svfscanf_r+0x874>
   12b3c:	f7fa7a13          	andi	s4,s4,-129
   12b40:	f49ff06f          	j	12a88 <__svfscanf_r+0x848>
   12b44:	00600793          	li	a5,6
   12b48:	f6fc96e3          	bne	s9,a5,12ab4 <__svfscanf_r+0x874>
   12b4c:	00700c93          	li	s9,7
   12b50:	f39ff06f          	j	12a88 <__svfscanf_r+0x848>
   12b54:	1e0d1c63          	bnez	s10,12d4c <__svfscanf_r+0xb0c>
   12b58:	000a9863          	bnez	s5,12b68 <__svfscanf_r+0x928>
   12b5c:	700a7713          	andi	a4,s4,1792
   12b60:	70000793          	li	a5,1792
   12b64:	56f70863          	beq	a4,a5,130d4 <__svfscanf_r+0xe94>
   12b68:	00100713          	li	a4,1
   12b6c:	00ec8663          	beq	s9,a4,12b78 <__svfscanf_r+0x938>
   12b70:	00400713          	li	a4,4
   12b74:	f4ec90e3          	bne	s9,a4,12ab4 <__svfscanf_r+0x874>
   12b78:	001c8e1b          	addiw	t3,s9,1
   12b7c:	0ffe7c93          	andi	s9,t3,255
   12b80:	f09ff06f          	j	12a88 <__svfscanf_r+0x848>
   12b84:	1c0c9c63          	bnez	s9,12d5c <__svfscanf_r+0xb1c>
   12b88:	f20a98e3          	bnez	s5,12ab8 <__svfscanf_r+0x878>
   12b8c:	700a7713          	andi	a4,s4,1792
   12b90:	70000793          	li	a5,1792
   12b94:	54f70663          	beq	a4,a5,130e0 <__svfscanf_r+0xea0>
   12b98:	fffd0f1b          	addiw	t5,s10,-1
   12b9c:	00100713          	li	a4,1
   12ba0:	6fe77c63          	bleu	t5,a4,13298 <__svfscanf_r+0x1058>
   12ba4:	fffc871b          	addiw	a4,s9,-1
   12ba8:	00600613          	li	a2,6
   12bac:	06e66063          	bltu	a2,a4,12c0c <__svfscanf_r+0x9cc>
   12bb0:	00200793          	li	a5,2
   12bb4:	7397fa63          	bleu	s9,a5,132e8 <__svfscanf_r+0x10a8>
   12bb8:	00300613          	li	a2,3
   12bbc:	0ff77713          	andi	a4,a4,255
   12bc0:	000d8d13          	mv	s10,s11
   12bc4:	00078913          	mv	s2,a5
   12bc8:	04cc8263          	beq	s9,a2,12c0c <__svfscanf_r+0x9cc>
   12bcc:	fffd0d13          	addi	s10,s10,-1
   12bd0:	000d4583          	lbu	a1,0(s10)
   12bd4:	000c0613          	mv	a2,s8
   12bd8:	00048513          	mv	a0,s1
   12bdc:	00e13423          	sd	a4,8(sp)
   12be0:	0d1080ef          	jal	1b4b0 <_ungetc_r>
   12be4:	00813703          	ld	a4,8(sp)
   12be8:	fff7071b          	addiw	a4,a4,-1
   12bec:	0ff77713          	andi	a4,a4,255
   12bf0:	fd271ee3          	bne	a4,s2,12bcc <__svfscanf_r+0x98c>
   12bf4:	ffcc871b          	addiw	a4,s9,-4
   12bf8:	0ff77713          	andi	a4,a4,255
   12bfc:	fff74613          	not	a2,a4
   12c00:	fffb881b          	addiw	a6,s7,-1
   12c04:	00cd8db3          	add	s11,s11,a2
   12c08:	40e80bbb          	subw	s7,a6,a4
   12c0c:	100a7713          	andi	a4,s4,256
   12c10:	04070e63          	beqz	a4,12c6c <__svfscanf_r+0xa2c>
   12c14:	400a7713          	andi	a4,s4,1024
   12c18:	6a071463          	bnez	a4,132c0 <__svfscanf_r+0x1080>
   12c1c:	fffdc583          	lbu	a1,-1(s11)
   12c20:	06500613          	li	a2,101
   12c24:	fffd8d13          	addi	s10,s11,-1
   12c28:	fffb871b          	addiw	a4,s7,-1
   12c2c:	02c58263          	beq	a1,a2,12c50 <__svfscanf_r+0xa10>
   12c30:	04500613          	li	a2,69
   12c34:	00c58e63          	beq	a1,a2,12c50 <__svfscanf_r+0xa10>
   12c38:	000c0613          	mv	a2,s8
   12c3c:	00048513          	mv	a0,s1
   12c40:	071080ef          	jal	1b4b0 <_ungetc_r>
   12c44:	ffedc583          	lbu	a1,-2(s11)
   12c48:	ffed8d13          	addi	s10,s11,-2
   12c4c:	ffeb871b          	addiw	a4,s7,-2
   12c50:	000c0613          	mv	a2,s8
   12c54:	00048513          	mv	a0,s1
   12c58:	00e13423          	sd	a4,8(sp)
   12c5c:	055080ef          	jal	1b4b0 <_ungetc_r>
   12c60:	00813703          	ld	a4,8(sp)
   12c64:	000d0d93          	mv	s11,s10
   12c68:	00070b93          	mv	s7,a4
   12c6c:	010a7713          	andi	a4,s4,16
   12c70:	e6071c63          	bnez	a4,122e8 <__svfscanf_r+0xa8>
   12c74:	000d8023          	sb	zero,0(s11)
   12c78:	600a7713          	andi	a4,s4,1536
   12c7c:	40000613          	li	a2,1024
   12c80:	48c70e63          	beq	a4,a2,1311c <__svfscanf_r+0xedc>
   12c84:	05013783          	ld	a5,80(sp)
   12c88:	4c079263          	bnez	a5,1314c <__svfscanf_r+0xf0c>
   12c8c:	03013583          	ld	a1,48(sp)
   12c90:	00000613          	li	a2,0
   12c94:	00048513          	mv	a0,s1
   12c98:	438050ef          	jal	180d0 <_strtod_r>
   12c9c:	001a7713          	andi	a4,s4,1
   12ca0:	22a50453          	fmv.d	fs0,fa0
   12ca4:	00071663          	bnez	a4,12cb0 <__svfscanf_r+0xa70>
   12ca8:	002a7893          	andi	a7,s4,2
   12cac:	4c088e63          	beqz	a7,13188 <__svfscanf_r+0xf48>
   12cb0:	000b3703          	ld	a4,0(s6)
   12cb4:	008b0b13          	addi	s6,s6,8
   12cb8:	00873027          	fsd	fs0,0(a4)
   12cbc:	01412783          	lw	a5,20(sp)
   12cc0:	0017879b          	addiw	a5,a5,1
   12cc4:	00f12a23          	sw	a5,20(sp)
   12cc8:	e20ff06f          	j	122e8 <__svfscanf_r+0xa8>
   12ccc:	00200793          	li	a5,2
   12cd0:	defc92e3          	bne	s9,a5,12ab4 <__svfscanf_r+0x874>
   12cd4:	00300c93          	li	s9,3
   12cd8:	db1ff06f          	j	12a88 <__svfscanf_r+0x848>
   12cdc:	500a7713          	andi	a4,s4,1280
   12ce0:	40000793          	li	a5,1024
   12ce4:	00f70863          	beq	a4,a5,12cf4 <__svfscanf_r+0xab4>
   12ce8:	00fa7733          	and	a4,s4,a5
   12cec:	dc0704e3          	beqz	a4,12ab4 <__svfscanf_r+0x874>
   12cf0:	ea0a84e3          	beqz	s5,12b98 <__svfscanf_r+0x958>
   12cf4:	200a7713          	andi	a4,s4,512
   12cf8:	00071a63          	bnez	a4,12d0c <__svfscanf_r+0xacc>
   12cfc:	03813783          	ld	a5,56(sp)
   12d00:	05b13c23          	sd	s11,88(sp)
   12d04:	40fa87b3          	sub	a5,s5,a5
   12d08:	04f13823          	sd	a5,80(sp)
   12d0c:	87fa7a93          	andi	s5,s4,-1921
   12d10:	180aea13          	ori	s4,s5,384
   12d14:	00000a93          	li	s5,0
   12d18:	d71ff06f          	j	12a88 <__svfscanf_r+0x848>
   12d1c:	00100713          	li	a4,1
   12d20:	d8ed1ae3          	bne	s10,a4,12ab4 <__svfscanf_r+0x874>
   12d24:	00200d13          	li	s10,2
   12d28:	d61ff06f          	j	12a88 <__svfscanf_r+0x848>
   12d2c:	04013783          	ld	a5,64(sp)
   12d30:	0007c703          	lbu	a4,0(a5)
   12d34:	d8a710e3          	bne	a4,a0,12ab4 <__svfscanf_r+0x874>
   12d38:	200a7713          	andi	a4,s4,512
   12d3c:	d6070ce3          	beqz	a4,12ab4 <__svfscanf_r+0x874>
   12d40:	d7fa7a13          	andi	s4,s4,-641
   12d44:	03513c23          	sd	s5,56(sp)
   12d48:	d41ff06f          	j	12a88 <__svfscanf_r+0x848>
   12d4c:	00200793          	li	a5,2
   12d50:	e0fd1ce3          	bne	s10,a5,12b68 <__svfscanf_r+0x928>
   12d54:	00300d13          	li	s10,3
   12d58:	d31ff06f          	j	12a88 <__svfscanf_r+0x848>
   12d5c:	ffdc871b          	addiw	a4,s9,-3
   12d60:	0fd77713          	andi	a4,a4,253
   12d64:	e0070ae3          	beqz	a4,12b78 <__svfscanf_r+0x938>
   12d68:	e20a88e3          	beqz	s5,12b98 <__svfscanf_r+0x958>
   12d6c:	d4dff06f          	j	12ab8 <__svfscanf_r+0x878>
   12d70:	00091463          	bnez	s2,12d78 <__svfscanf_r+0xb38>
   12d74:	fff00913          	li	s2,-1
   12d78:	001af613          	andi	a2,s5,1
   12d7c:	2c061863          	bnez	a2,1304c <__svfscanf_r+0xe0c>
   12d80:	010afa93          	andi	s5,s5,16
   12d84:	1e0a8e63          	beqz	s5,12f80 <__svfscanf_r+0xd40>
   12d88:	00000a93          	li	s5,0
   12d8c:	0100006f          	j	12d9c <__svfscanf_r+0xb5c>
   12d90:	0006c703          	lbu	a4,0(a3)
   12d94:	00e50733          	add	a4,a0,a4
   12d98:	00174703          	lbu	a4,1(a4)
   12d9c:	00877713          	andi	a4,a4,8
   12da0:	a20710e3          	bnez	a4,127c0 <__svfscanf_r+0x580>
   12da4:	008c2703          	lw	a4,8(s8)
   12da8:	00168693          	addi	a3,a3,1
   12dac:	00dc3023          	sd	a3,0(s8)
   12db0:	fff7071b          	addiw	a4,a4,-1
   12db4:	00ec2423          	sw	a4,8(s8)
   12db8:	fff90913          	addi	s2,s2,-1
   12dbc:	001a8a9b          	addiw	s5,s5,1
   12dc0:	a00900e3          	beqz	s2,127c0 <__svfscanf_r+0x580>
   12dc4:	fce046e3          	bgtz	a4,12d90 <__svfscanf_r+0xb50>
   12dc8:	000c0593          	mv	a1,s8
   12dcc:	00048513          	mv	a0,s1
   12dd0:	345040ef          	jal	17914 <__srefill_r>
   12dd4:	9e0516e3          	bnez	a0,127c0 <__svfscanf_r+0x580>
   12dd8:	8181b503          	ld	a0,-2024(gp) # 23168 <__ctype_ptr__>
   12ddc:	000c3683          	ld	a3,0(s8)
   12de0:	fb1ff06f          	j	12d90 <__svfscanf_r+0xb50>
   12de4:	fff90713          	addi	a4,s2,-1
   12de8:	15c00593          	li	a1,348
   12dec:	00000e13          	li	t3,0
   12df0:	00e5f663          	bleu	a4,a1,12dfc <__svfscanf_r+0xbbc>
   12df4:	ea390e1b          	addiw	t3,s2,-349
   12df8:	15d00913          	li	s2,349
   12dfc:	17010793          	addi	a5,sp,368
   12e00:	00001737          	lui	a4,0x1
   12e04:	02f13823          	sd	a5,48(sp)
   12e08:	d807071b          	addiw	a4,a4,-640
   12e0c:	00078d13          	mv	s10,a5
   12e10:	00020db7          	lui	s11,0x20
   12e14:	000017b7          	lui	a5,0x1
   12e18:	00eaeab3          	or	s5,s5,a4
   12e1c:	00000a13          	li	s4,0
   12e20:	1b0d8d93          	addi	s11,s11,432 # 201b0 <basefix.4147>
   12e24:	80078c9b          	addiw	s9,a5,-2048
   12e28:	fd56071b          	addiw	a4,a2,-43
   12e2c:	0ff77513          	andi	a0,a4,255
   12e30:	04d00593          	li	a1,77
   12e34:	0aa5e063          	bltu	a1,a0,12ed4 <__svfscanf_r+0xc94>
   12e38:	01813783          	ld	a5,24(sp)
   12e3c:	0ff77713          	andi	a4,a4,255
   12e40:	00271713          	slli	a4,a4,0x2
   12e44:	00f70733          	add	a4,a4,a5
   12e48:	00072703          	lw	a4,0(a4) # 1000 <_ftext-0xf000>
   12e4c:	00070067          	jr	a4
   12e50:	600af713          	andi	a4,s5,1536
   12e54:	20000593          	li	a1,512
   12e58:	06b71e63          	bne	a4,a1,12ed4 <__svfscanf_r+0xc94>
   12e5c:	dffafa93          	andi	s5,s5,-513
   12e60:	01000793          	li	a5,16
   12e64:	500aea93          	ori	s5,s5,1280
   12e68:	00f12823          	sw	a5,16(sp)
   12e6c:	00cd0023          	sb	a2,0(s10)
   12e70:	001d0d13          	addi	s10,s10,1
   12e74:	008c2703          	lw	a4,8(s8)
   12e78:	fff7071b          	addiw	a4,a4,-1
   12e7c:	00ec2423          	sw	a4,8(s8)
   12e80:	0ee05263          	blez	a4,12f64 <__svfscanf_r+0xd24>
   12e84:	00168693          	addi	a3,a3,1
   12e88:	00dc3023          	sd	a3,0(s8)
   12e8c:	fff90913          	addi	s2,s2,-1
   12e90:	04090263          	beqz	s2,12ed4 <__svfscanf_r+0xc94>
   12e94:	000c3683          	ld	a3,0(s8)
   12e98:	0006c603          	lbu	a2,0(a3)
   12e9c:	f8dff06f          	j	12e28 <__svfscanf_r+0xbe8>
   12ea0:	01012783          	lw	a5,16(sp)
   12ea4:	00a00713          	li	a4,10
   12ea8:	02f75663          	ble	a5,a4,12ed4 <__svfscanf_r+0xc94>
   12eac:	04812783          	lw	a5,72(sp)
   12eb0:	00fafab3          	and	s5,s5,a5
   12eb4:	fb9ff06f          	j	12e6c <__svfscanf_r+0xc2c>
   12eb8:	01012703          	lw	a4,16(sp)
   12ebc:	00171713          	slli	a4,a4,0x1
   12ec0:	00ed8733          	add	a4,s11,a4
   12ec4:	00071783          	lh	a5,0(a4)
   12ec8:	00800713          	li	a4,8
   12ecc:	00f12823          	sw	a5,16(sp)
   12ed0:	fcf74ee3          	blt	a4,a5,12eac <__svfscanf_r+0xc6c>
   12ed4:	100af713          	andi	a4,s5,256
   12ed8:	00070a63          	beqz	a4,12eec <__svfscanf_r+0xcac>
   12edc:	03013783          	ld	a5,48(sp)
   12ee0:	21a7e663          	bltu	a5,s10,130ec <__svfscanf_r+0xeac>
   12ee4:	03013783          	ld	a5,48(sp)
   12ee8:	c8fd0663          	beq	s10,a5,12374 <__svfscanf_r+0x134>
   12eec:	010af713          	andi	a4,s5,16
   12ef0:	10070e63          	beqz	a4,1300c <__svfscanf_r+0xdcc>
   12ef4:	03013783          	ld	a5,48(sp)
   12ef8:	017a083b          	addw	a6,s4,s7
   12efc:	40fd0cb3          	sub	s9,s10,a5
   12f00:	010c8bbb          	addw	s7,s9,a6
   12f04:	be4ff06f          	j	122e8 <__svfscanf_r+0xa8>
   12f08:	01012703          	lw	a4,16(sp)
   12f0c:	00171713          	slli	a4,a4,0x1
   12f10:	00ed8733          	add	a4,s11,a4
   12f14:	00071783          	lh	a5,0(a4)
   12f18:	00f12823          	sw	a5,16(sp)
   12f1c:	04812783          	lw	a5,72(sp)
   12f20:	00fafab3          	and	s5,s5,a5
   12f24:	f49ff06f          	j	12e6c <__svfscanf_r+0xc2c>
   12f28:	019af733          	and	a4,s5,s9
   12f2c:	f40700e3          	beqz	a4,12e6c <__svfscanf_r+0xc2c>
   12f30:	01012783          	lw	a5,16(sp)
   12f34:	00079863          	bnez	a5,12f44 <__svfscanf_r+0xd04>
   12f38:	00800793          	li	a5,8
   12f3c:	200aea93          	ori	s5,s5,512
   12f40:	00f12823          	sw	a5,16(sp)
   12f44:	400af713          	andi	a4,s5,1024
   12f48:	16070a63          	beqz	a4,130bc <__svfscanf_r+0xe7c>
   12f4c:	a7fafa93          	andi	s5,s5,-1409
   12f50:	f1dff06f          	j	12e6c <__svfscanf_r+0xc2c>
   12f54:	080af713          	andi	a4,s5,128
   12f58:	f6070ee3          	beqz	a4,12ed4 <__svfscanf_r+0xc94>
   12f5c:	f7fafa93          	andi	s5,s5,-129
   12f60:	f0dff06f          	j	12e6c <__svfscanf_r+0xc2c>
   12f64:	000c0593          	mv	a1,s8
   12f68:	00048513          	mv	a0,s1
   12f6c:	01c13423          	sd	t3,8(sp)
   12f70:	1a5040ef          	jal	17914 <__srefill_r>
   12f74:	00813e03          	ld	t3,8(sp)
   12f78:	f0050ae3          	beqz	a0,12e8c <__svfscanf_r+0xc4c>
   12f7c:	f59ff06f          	j	12ed4 <__svfscanf_r+0xc94>
   12f80:	000b3c83          	ld	s9,0(s6)
   12f84:	008b0b13          	addi	s6,s6,8
   12f88:	012c8d33          	add	s10,s9,s2
   12f8c:	000c8a93          	mv	s5,s9
   12f90:	0180006f          	j	12fa8 <__svfscanf_r+0xd68>
   12f94:	000c3683          	ld	a3,0(s8)
   12f98:	8181b703          	ld	a4,-2024(gp) # 23168 <__ctype_ptr__>
   12f9c:	0006c603          	lbu	a2,0(a3)
   12fa0:	00c70733          	add	a4,a4,a2
   12fa4:	00174703          	lbu	a4,1(a4)
   12fa8:	00877713          	andi	a4,a4,8
   12fac:	04071063          	bnez	a4,12fec <__svfscanf_r+0xdac>
   12fb0:	008c2703          	lw	a4,8(s8)
   12fb4:	00168613          	addi	a2,a3,1
   12fb8:	00cc3023          	sd	a2,0(s8)
   12fbc:	fff7071b          	addiw	a4,a4,-1
   12fc0:	00ec2423          	sw	a4,8(s8)
   12fc4:	0006c703          	lbu	a4,0(a3)
   12fc8:	001a8a93          	addi	s5,s5,1
   12fcc:	feea8fa3          	sb	a4,-1(s5)
   12fd0:	035d0063          	beq	s10,s5,12ff0 <__svfscanf_r+0xdb0>
   12fd4:	008c2703          	lw	a4,8(s8)
   12fd8:	fae04ee3          	bgtz	a4,12f94 <__svfscanf_r+0xd54>
   12fdc:	000c0593          	mv	a1,s8
   12fe0:	00048513          	mv	a0,s1
   12fe4:	131040ef          	jal	17914 <__srefill_r>
   12fe8:	fa0506e3          	beqz	a0,12f94 <__svfscanf_r+0xd54>
   12fec:	000a8d13          	mv	s10,s5
   12ff0:	01412783          	lw	a5,20(sp)
   12ff4:	419d0cb3          	sub	s9,s10,s9
   12ff8:	000d0023          	sb	zero,0(s10)
   12ffc:	0017879b          	addiw	a5,a5,1
   13000:	017c8bbb          	addw	s7,s9,s7
   13004:	00f12a23          	sw	a5,20(sp)
   13008:	ae0ff06f          	j	122e8 <__svfscanf_r+0xa8>
   1300c:	01012683          	lw	a3,16(sp)
   13010:	03013583          	ld	a1,48(sp)
   13014:	02813783          	ld	a5,40(sp)
   13018:	00000613          	li	a2,0
   1301c:	00048513          	mv	a0,s1
   13020:	000d0023          	sb	zero,0(s10)
   13024:	000780e7          	jalr	a5
   13028:	020af713          	andi	a4,s5,32
   1302c:	0c070c63          	beqz	a4,13104 <__svfscanf_r+0xec4>
   13030:	000b3703          	ld	a4,0(s6)
   13034:	008b0b13          	addi	s6,s6,8
   13038:	00a73023          	sd	a0,0(a4)
   1303c:	01412783          	lw	a5,20(sp)
   13040:	0017879b          	addiw	a5,a5,1
   13044:	00f12a23          	sw	a5,20(sp)
   13048:	eadff06f          	j	12ef4 <__svfscanf_r+0xcb4>
   1304c:	010af793          	andi	a5,s5,16
   13050:	06810c93          	addi	s9,sp,104
   13054:	00800613          	li	a2,8
   13058:	00000593          	li	a1,0
   1305c:	000c8513          	mv	a0,s9
   13060:	00078a13          	mv	s4,a5
   13064:	00f12423          	sw	a5,8(sp)
   13068:	06410a93          	addi	s5,sp,100
   1306c:	744030ef          	jal	167b0 <memset>
   13070:	000a1663          	bnez	s4,1307c <__svfscanf_r+0xe3c>
   13074:	000b3a83          	ld	s5,0(s6)
   13078:	008b0b13          	addi	s6,s6,8
   1307c:	00000a13          	li	s4,0
   13080:	000c3603          	ld	a2,0(s8)
   13084:	8181b683          	ld	a3,-2024(gp) # 23168 <__ctype_ptr__>
   13088:	00064603          	lbu	a2,0(a2)
   1308c:	00c686b3          	add	a3,a3,a2
   13090:	0016c683          	lbu	a3,1(a3)
   13094:	0086f693          	andi	a3,a3,8
   13098:	00069463          	bnez	a3,130a0 <__svfscanf_r+0xe60>
   1309c:	10091663          	bnez	s2,131a8 <__svfscanf_r+0xf68>
   130a0:	00812783          	lw	a5,8(sp)
   130a4:	a4079263          	bnez	a5,122e8 <__svfscanf_r+0xa8>
   130a8:	01412783          	lw	a5,20(sp)
   130ac:	000aa023          	sw	zero,0(s5)
   130b0:	0017879b          	addiw	a5,a5,1
   130b4:	00f12a23          	sw	a5,20(sp)
   130b8:	a30ff06f          	j	122e8 <__svfscanf_r+0xa8>
   130bc:	c7fafa93          	andi	s5,s5,-897
   130c0:	000e0663          	beqz	t3,130cc <__svfscanf_r+0xe8c>
   130c4:	fffe0e1b          	addiw	t3,t3,-1
   130c8:	00190913          	addi	s2,s2,1
   130cc:	001a0a1b          	addiw	s4,s4,1
   130d0:	da5ff06f          	j	12e74 <__svfscanf_r+0xc34>
   130d4:	87fa7a13          	andi	s4,s4,-1921
   130d8:	00100d13          	li	s10,1
   130dc:	9adff06f          	j	12a88 <__svfscanf_r+0x848>
   130e0:	87fa7a13          	andi	s4,s4,-1921
   130e4:	00100c93          	li	s9,1
   130e8:	9a1ff06f          	j	12a88 <__svfscanf_r+0x848>
   130ec:	fffd4583          	lbu	a1,-1(s10)
   130f0:	000c0613          	mv	a2,s8
   130f4:	00048513          	mv	a0,s1
   130f8:	fffd0d13          	addi	s10,s10,-1
   130fc:	3b4080ef          	jal	1b4b0 <_ungetc_r>
   13100:	de5ff06f          	j	12ee4 <__svfscanf_r+0xca4>
   13104:	004af713          	andi	a4,s5,4
   13108:	06070463          	beqz	a4,13170 <__svfscanf_r+0xf30>
   1310c:	000b3703          	ld	a4,0(s6)
   13110:	008b0b13          	addi	s6,s6,8
   13114:	00a71023          	sh	a0,0(a4)
   13118:	f25ff06f          	j	1303c <__svfscanf_r+0xdfc>
   1311c:	03813783          	ld	a5,56(sp)
   13120:	40fa8ab3          	sub	s5,s5,a5
   13124:	41500633          	neg	a2,s5
   13128:	b60a82e3          	beqz	s5,12c8c <__svfscanf_r+0xa4c>
   1312c:	2b910713          	addi	a4,sp,697
   13130:	00ede463          	bltu	s11,a4,13138 <__svfscanf_r+0xef8>
   13134:	2b810d93          	addi	s11,sp,696
   13138:	000215b7          	lui	a1,0x21
   1313c:	b3858593          	addi	a1,a1,-1224 # 20b38 <zeroes.4123+0x78>
   13140:	000d8513          	mv	a0,s11
   13144:	3c5040ef          	jal	17d08 <sprintf>
   13148:	b45ff06f          	j	12c8c <__svfscanf_r+0xa4c>
   1314c:	05813d83          	ld	s11,88(sp)
   13150:	00000613          	li	a2,0
   13154:	00a00693          	li	a3,10
   13158:	001d8593          	addi	a1,s11,1
   1315c:	00048513          	mv	a0,s1
   13160:	274060ef          	jal	193d4 <_strtol_r>
   13164:	05013783          	ld	a5,80(sp)
   13168:	40f50633          	sub	a2,a0,a5
   1316c:	fc1ff06f          	j	1312c <__svfscanf_r+0xeec>
   13170:	001afa93          	andi	s5,s5,1
   13174:	000b3703          	ld	a4,0(s6)
   13178:	008b0b13          	addi	s6,s6,8
   1317c:	0c0a8063          	beqz	s5,1323c <__svfscanf_r+0xffc>
   13180:	00a73023          	sd	a0,0(a4)
   13184:	eb9ff06f          	j	1303c <__svfscanf_r+0xdfc>
   13188:	008b0a93          	addi	s5,s6,8
   1318c:	000b3c83          	ld	s9,0(s6)
   13190:	291040ef          	jal	17c20 <__fpclassifyd>
   13194:	18050063          	beqz	a0,13314 <__svfscanf_r+0x10d4>
   13198:	40147453          	fcvt.s.d	fs0,fs0
   1319c:	000a8b13          	mv	s6,s5
   131a0:	008ca027          	fsw	fs0,0(s9)
   131a4:	b19ff06f          	j	12cbc <__svfscanf_r+0xa7c>
   131a8:	045020ef          	jal	159ec <__locale_mb_cur_max>
   131ac:	b2aa0663          	beq	s4,a0,124d8 <__svfscanf_r+0x298>
   131b0:	000c3683          	ld	a3,0(s8)
   131b4:	008c2603          	lw	a2,8(s8)
   131b8:	2d010793          	addi	a5,sp,720
   131bc:	0006cf03          	lbu	t5,0(a3)
   131c0:	fff6061b          	addiw	a2,a2,-1
   131c4:	00168693          	addi	a3,a3,1
   131c8:	001a0d1b          	addiw	s10,s4,1
   131cc:	01478eb3          	add	t4,a5,s4
   131d0:	00cc2423          	sw	a2,8(s8)
   131d4:	00dc3023          	sd	a3,0(s8)
   131d8:	000c8713          	mv	a4,s9
   131dc:	000d0693          	mv	a3,s10
   131e0:	17010613          	addi	a2,sp,368
   131e4:	000a8593          	mv	a1,s5
   131e8:	00048513          	mv	a0,s1
   131ec:	ebee8023          	sb	t5,-352(t4)
   131f0:	15c030ef          	jal	1634c <_mbrtowc_r>
   131f4:	fff00793          	li	a5,-1
   131f8:	aef50063          	beq	a0,a5,124d8 <__svfscanf_r+0x298>
   131fc:	04051463          	bnez	a0,13244 <__svfscanf_r+0x1004>
   13200:	000aa023          	sw	zero,0(s5)
   13204:	00000513          	li	a0,0
   13208:	730020ef          	jal	15938 <iswspace>
   1320c:	06050263          	beqz	a0,13270 <__svfscanf_r+0x1030>
   13210:	e80d08e3          	beqz	s10,130a0 <__svfscanf_r+0xe60>
   13214:	fffd0d1b          	addiw	s10,s10,-1
   13218:	000d0713          	mv	a4,s10
   1321c:	2d010793          	addi	a5,sp,720
   13220:	00e78733          	add	a4,a5,a4
   13224:	ea074583          	lbu	a1,-352(a4)
   13228:	000c0613          	mv	a2,s8
   1322c:	00048513          	mv	a0,s1
   13230:	280080ef          	jal	1b4b0 <_ungetc_r>
   13234:	fe0d10e3          	bnez	s10,13214 <__svfscanf_r+0xfd4>
   13238:	e69ff06f          	j	130a0 <__svfscanf_r+0xe60>
   1323c:	00a72023          	sw	a0,0(a4)
   13240:	dfdff06f          	j	1303c <__svfscanf_r+0xdfc>
   13244:	ffe00793          	li	a5,-2
   13248:	000d0a13          	mv	s4,s10
   1324c:	04f51263          	bne	a0,a5,13290 <__svfscanf_r+0x1050>
   13250:	008c2683          	lw	a3,8(s8)
   13254:	e2d046e3          	bgtz	a3,13080 <__svfscanf_r+0xe40>
   13258:	000c0593          	mv	a1,s8
   1325c:	00048513          	mv	a0,s1
   13260:	6b4040ef          	jal	17914 <__srefill_r>
   13264:	e0050ee3          	beqz	a0,13080 <__svfscanf_r+0xe40>
   13268:	a60a1863          	bnez	s4,124d8 <__svfscanf_r+0x298>
   1326c:	e35ff06f          	j	130a0 <__svfscanf_r+0xe60>
   13270:	00812783          	lw	a5,8(sp)
   13274:	01ab8bbb          	addw	s7,s7,s10
   13278:	fff90913          	addi	s2,s2,-1
   1327c:	00000a13          	li	s4,0
   13280:	fc0798e3          	bnez	a5,13250 <__svfscanf_r+0x1010>
   13284:	004a8a93          	addi	s5,s5,4
   13288:	00078a13          	mv	s4,a5
   1328c:	fc5ff06f          	j	13250 <__svfscanf_r+0x1010>
   13290:	000aa503          	lw	a0,0(s5)
   13294:	f75ff06f          	j	13208 <__svfscanf_r+0xfc8>
   13298:	03013783          	ld	a5,48(sp)
   1329c:	8db7fc63          	bleu	s11,a5,12374 <__svfscanf_r+0x134>
   132a0:	fffd8d93          	addi	s11,s11,-1
   132a4:	000dc583          	lbu	a1,0(s11)
   132a8:	000c0613          	mv	a2,s8
   132ac:	00048513          	mv	a0,s1
   132b0:	200080ef          	jal	1b4b0 <_ungetc_r>
   132b4:	03013783          	ld	a5,48(sp)
   132b8:	fefd94e3          	bne	s11,a5,132a0 <__svfscanf_r+0x1060>
   132bc:	8b8ff06f          	j	12374 <__svfscanf_r+0x134>
   132c0:	03013783          	ld	a5,48(sp)
   132c4:	8bb7f863          	bleu	s11,a5,12374 <__svfscanf_r+0x134>
   132c8:	fffd8d93          	addi	s11,s11,-1
   132cc:	000dc583          	lbu	a1,0(s11)
   132d0:	000c0613          	mv	a2,s8
   132d4:	00048513          	mv	a0,s1
   132d8:	1d8080ef          	jal	1b4b0 <_ungetc_r>
   132dc:	03013783          	ld	a5,48(sp)
   132e0:	fefd94e3          	bne	s11,a5,132c8 <__svfscanf_r+0x1088>
   132e4:	890ff06f          	j	12374 <__svfscanf_r+0x134>
   132e8:	03013783          	ld	a5,48(sp)
   132ec:	01b7e463          	bltu	a5,s11,132f4 <__svfscanf_r+0x10b4>
   132f0:	884ff06f          	j	12374 <__svfscanf_r+0x134>
   132f4:	fffd8d93          	addi	s11,s11,-1
   132f8:	000dc583          	lbu	a1,0(s11)
   132fc:	000c0613          	mv	a2,s8
   13300:	00048513          	mv	a0,s1
   13304:	1ac080ef          	jal	1b4b0 <_ungetc_r>
   13308:	03013783          	ld	a5,48(sp)
   1330c:	fefd94e3          	bne	s11,a5,132f4 <__svfscanf_r+0x10b4>
   13310:	864ff06f          	j	12374 <__svfscanf_r+0x134>
   13314:	00000513          	li	a0,0
   13318:	0fd040ef          	jal	17c14 <nanf>
   1331c:	00aca027          	fsw	fa0,0(s9)
   13320:	000a8b13          	mv	s6,s5
   13324:	999ff06f          	j	12cbc <__svfscanf_r+0xa7c>

0000000000013328 <vfscanf>:
   13328:	fd010113          	addi	sp,sp,-48
   1332c:	02813023          	sd	s0,32(sp)
   13330:	8101b403          	ld	s0,-2032(gp) # 23160 <_impure_ptr>
   13334:	00913c23          	sd	s1,24(sp)
   13338:	02113423          	sd	ra,40(sp)
   1333c:	00050493          	mv	s1,a0
   13340:	00060693          	mv	a3,a2
   13344:	02040263          	beqz	s0,13368 <vfscanf+0x40>
   13348:	05042783          	lw	a5,80(s0)
   1334c:	00079e63          	bnez	a5,13368 <vfscanf+0x40>
   13350:	00040513          	mv	a0,s0
   13354:	00b13023          	sd	a1,0(sp)
   13358:	00c13423          	sd	a2,8(sp)
   1335c:	599010ef          	jal	150f4 <__sinit>
   13360:	00813683          	ld	a3,8(sp)
   13364:	00013583          	ld	a1,0(sp)
   13368:	00058613          	mv	a2,a1
   1336c:	00040513          	mv	a0,s0
   13370:	00048593          	mv	a1,s1
   13374:	02813083          	ld	ra,40(sp)
   13378:	02013403          	ld	s0,32(sp)
   1337c:	01813483          	ld	s1,24(sp)
   13380:	03010113          	addi	sp,sp,48
   13384:	ebdfe06f          	j	12240 <__svfscanf_r>

0000000000013388 <__svfscanf>:
   13388:	00060693          	mv	a3,a2
   1338c:	00058613          	mv	a2,a1
   13390:	00050593          	mv	a1,a0
   13394:	8101b503          	ld	a0,-2032(gp) # 23160 <_impure_ptr>
   13398:	ea9fe06f          	j	12240 <__svfscanf_r>

000000000001339c <_vfscanf_r>:
   1339c:	fd010113          	addi	sp,sp,-48
   133a0:	02813023          	sd	s0,32(sp)
   133a4:	02113423          	sd	ra,40(sp)
   133a8:	00050413          	mv	s0,a0
   133ac:	02050463          	beqz	a0,133d4 <_vfscanf_r+0x38>
   133b0:	05052783          	lw	a5,80(a0)
   133b4:	02079063          	bnez	a5,133d4 <_vfscanf_r+0x38>
   133b8:	00d13c23          	sd	a3,24(sp)
   133bc:	00c13823          	sd	a2,16(sp)
   133c0:	00b13423          	sd	a1,8(sp)
   133c4:	531010ef          	jal	150f4 <__sinit>
   133c8:	01813683          	ld	a3,24(sp)
   133cc:	01013603          	ld	a2,16(sp)
   133d0:	00813583          	ld	a1,8(sp)
   133d4:	00040513          	mv	a0,s0
   133d8:	02813083          	ld	ra,40(sp)
   133dc:	02013403          	ld	s0,32(sp)
   133e0:	03010113          	addi	sp,sp,48
   133e4:	e5dfe06f          	j	12240 <__svfscanf_r>

00000000000133e8 <__swsetup_r>:
   133e8:	8101b783          	ld	a5,-2032(gp) # 23160 <_impure_ptr>
   133ec:	fe010113          	addi	sp,sp,-32
   133f0:	00813823          	sd	s0,16(sp)
   133f4:	00913423          	sd	s1,8(sp)
   133f8:	00113c23          	sd	ra,24(sp)
   133fc:	00050493          	mv	s1,a0
   13400:	00058413          	mv	s0,a1
   13404:	00078663          	beqz	a5,13410 <__swsetup_r+0x28>
   13408:	0507a703          	lw	a4,80(a5) # 1050 <_ftext-0xefb0>
   1340c:	0e070063          	beqz	a4,134ec <__swsetup_r+0x104>
   13410:	01041703          	lh	a4,16(s0)
   13414:	03071793          	slli	a5,a4,0x30
   13418:	0307d793          	srli	a5,a5,0x30
   1341c:	0087f693          	andi	a3,a5,8
   13420:	04068263          	beqz	a3,13464 <__swsetup_r+0x7c>
   13424:	01843683          	ld	a3,24(s0)
   13428:	06068663          	beqz	a3,13494 <__swsetup_r+0xac>
   1342c:	0017f713          	andi	a4,a5,1
   13430:	08071463          	bnez	a4,134b8 <__swsetup_r+0xd0>
   13434:	0027f793          	andi	a5,a5,2
   13438:	00000713          	li	a4,0
   1343c:	00079463          	bnez	a5,13444 <__swsetup_r+0x5c>
   13440:	02042703          	lw	a4,32(s0)
   13444:	00e42623          	sw	a4,12(s0)
   13448:	00000513          	li	a0,0
   1344c:	08068263          	beqz	a3,134d0 <__swsetup_r+0xe8>
   13450:	01813083          	ld	ra,24(sp)
   13454:	01013403          	ld	s0,16(sp)
   13458:	00813483          	ld	s1,8(sp)
   1345c:	02010113          	addi	sp,sp,32
   13460:	00008067          	ret
   13464:	0107f693          	andi	a3,a5,16
   13468:	0c068663          	beqz	a3,13534 <__swsetup_r+0x14c>
   1346c:	0047f793          	andi	a5,a5,4
   13470:	08079463          	bnez	a5,134f8 <__swsetup_r+0x110>
   13474:	01843683          	ld	a3,24(s0)
   13478:	00876793          	ori	a5,a4,8
   1347c:	0107979b          	slliw	a5,a5,0x10
   13480:	4107d79b          	sraiw	a5,a5,0x10
   13484:	00f41823          	sh	a5,16(s0)
   13488:	03079793          	slli	a5,a5,0x30
   1348c:	0307d793          	srli	a5,a5,0x30
   13490:	f8069ee3          	bnez	a3,1342c <__swsetup_r+0x44>
   13494:	2807f713          	andi	a4,a5,640
   13498:	20000613          	li	a2,512
   1349c:	f8c708e3          	beq	a4,a2,1342c <__swsetup_r+0x44>
   134a0:	00040593          	mv	a1,s0
   134a4:	00048513          	mv	a0,s1
   134a8:	588020ef          	jal	15a30 <__smakebuf_r>
   134ac:	01045783          	lhu	a5,16(s0)
   134b0:	01843683          	ld	a3,24(s0)
   134b4:	f79ff06f          	j	1342c <__swsetup_r+0x44>
   134b8:	02042783          	lw	a5,32(s0)
   134bc:	00042623          	sw	zero,12(s0)
   134c0:	00000513          	li	a0,0
   134c4:	40f007bb          	negw	a5,a5
   134c8:	02f42423          	sw	a5,40(s0)
   134cc:	f80692e3          	bnez	a3,13450 <__swsetup_r+0x68>
   134d0:	01041783          	lh	a5,16(s0)
   134d4:	0807f713          	andi	a4,a5,128
   134d8:	f6070ce3          	beqz	a4,13450 <__swsetup_r+0x68>
   134dc:	0407e793          	ori	a5,a5,64
   134e0:	00f41823          	sh	a5,16(s0)
   134e4:	fff00513          	li	a0,-1
   134e8:	f69ff06f          	j	13450 <__swsetup_r+0x68>
   134ec:	00078513          	mv	a0,a5
   134f0:	405010ef          	jal	150f4 <__sinit>
   134f4:	f1dff06f          	j	13410 <__swsetup_r+0x28>
   134f8:	05843583          	ld	a1,88(s0)
   134fc:	00058e63          	beqz	a1,13518 <__swsetup_r+0x130>
   13500:	07440793          	addi	a5,s0,116
   13504:	00f58863          	beq	a1,a5,13514 <__swsetup_r+0x12c>
   13508:	00048513          	mv	a0,s1
   1350c:	7ad010ef          	jal	154b8 <_free_r>
   13510:	01041703          	lh	a4,16(s0)
   13514:	04043c23          	sd	zero,88(s0)
   13518:	01843683          	ld	a3,24(s0)
   1351c:	fdb77713          	andi	a4,a4,-37
   13520:	0107171b          	slliw	a4,a4,0x10
   13524:	4107571b          	sraiw	a4,a4,0x10
   13528:	00042423          	sw	zero,8(s0)
   1352c:	00d43023          	sd	a3,0(s0)
   13530:	f49ff06f          	j	13478 <__swsetup_r+0x90>
   13534:	00900793          	li	a5,9
   13538:	00f4a023          	sw	a5,0(s1)
   1353c:	04076713          	ori	a4,a4,64
   13540:	00e41823          	sh	a4,16(s0)
   13544:	fff00513          	li	a0,-1
   13548:	f09ff06f          	j	13450 <__swsetup_r+0x68>

000000000001354c <__register_exitproc>:
   1354c:	fd010113          	addi	sp,sp,-48
   13550:	02813023          	sd	s0,32(sp)
   13554:	8081b403          	ld	s0,-2040(gp) # 23158 <_global_impure_ptr>
   13558:	00913c23          	sd	s1,24(sp)
   1355c:	00050493          	mv	s1,a0
   13560:	1f843503          	ld	a0,504(s0)
   13564:	01213823          	sd	s2,16(sp)
   13568:	01313423          	sd	s3,8(sp)
   1356c:	01413023          	sd	s4,0(sp)
   13570:	02113423          	sd	ra,40(sp)
   13574:	00058913          	mv	s2,a1
   13578:	00060a13          	mv	s4,a2
   1357c:	00068993          	mv	s3,a3
   13580:	0c050663          	beqz	a0,1364c <__register_exitproc+0x100>
   13584:	00852703          	lw	a4,8(a0)
   13588:	01f00793          	li	a5,31
   1358c:	0017059b          	addiw	a1,a4,1
   13590:	04e7d063          	ble	a4,a5,135d0 <__register_exitproc+0x84>
   13594:	000007b7          	lui	a5,0x0
   13598:	00078793          	mv	a5,a5
   1359c:	0a078e63          	beqz	a5,13658 <__register_exitproc+0x10c>
   135a0:	31800513          	li	a0,792
   135a4:	fffed317          	auipc	t1,0xfffed
   135a8:	a5c300e7          	jalr	t1,-1444 # 0 <_ftext-0x10000>
   135ac:	0a050663          	beqz	a0,13658 <__register_exitproc+0x10c>
   135b0:	1f843783          	ld	a5,504(s0)
   135b4:	00052423          	sw	zero,8(a0)
   135b8:	00100593          	li	a1,1
   135bc:	00f53023          	sd	a5,0(a0)
   135c0:	1ea43c23          	sd	a0,504(s0)
   135c4:	30052823          	sw	zero,784(a0)
   135c8:	30052a23          	sw	zero,788(a0)
   135cc:	00000713          	li	a4,0
   135d0:	00070793          	mv	a5,a4
   135d4:	02049e63          	bnez	s1,13610 <__register_exitproc+0xc4>
   135d8:	00278793          	addi	a5,a5,2 # 2 <_ftext-0xfffe>
   135dc:	00379793          	slli	a5,a5,0x3
   135e0:	00b52423          	sw	a1,8(a0)
   135e4:	00f50533          	add	a0,a0,a5
   135e8:	01253023          	sd	s2,0(a0)
   135ec:	00000513          	li	a0,0
   135f0:	02813083          	ld	ra,40(sp)
   135f4:	02013403          	ld	s0,32(sp)
   135f8:	01813483          	ld	s1,24(sp)
   135fc:	01013903          	ld	s2,16(sp)
   13600:	00813983          	ld	s3,8(sp)
   13604:	00013a03          	ld	s4,0(sp)
   13608:	03010113          	addi	sp,sp,48
   1360c:	00008067          	ret
   13610:	00371813          	slli	a6,a4,0x3
   13614:	01050833          	add	a6,a0,a6
   13618:	11483823          	sd	s4,272(a6)
   1361c:	31052883          	lw	a7,784(a0)
   13620:	00100613          	li	a2,1
   13624:	00e6173b          	sllw	a4,a2,a4
   13628:	00e8e633          	or	a2,a7,a4
   1362c:	30c52823          	sw	a2,784(a0)
   13630:	21383823          	sd	s3,528(a6)
   13634:	00200693          	li	a3,2
   13638:	fad490e3          	bne	s1,a3,135d8 <__register_exitproc+0x8c>
   1363c:	31452683          	lw	a3,788(a0)
   13640:	00e6e733          	or	a4,a3,a4
   13644:	30e52a23          	sw	a4,788(a0)
   13648:	f91ff06f          	j	135d8 <__register_exitproc+0x8c>
   1364c:	20040513          	addi	a0,s0,512
   13650:	1ea43c23          	sd	a0,504(s0)
   13654:	f31ff06f          	j	13584 <__register_exitproc+0x38>
   13658:	fff00513          	li	a0,-1
   1365c:	f95ff06f          	j	135f0 <__register_exitproc+0xa4>

0000000000013660 <__call_exitprocs>:
   13660:	fa010113          	addi	sp,sp,-96
   13664:	03413823          	sd	s4,48(sp)
   13668:	8081ba03          	ld	s4,-2040(gp) # 23158 <_global_impure_ptr>
   1366c:	03313c23          	sd	s3,56(sp)
   13670:	000009b7          	lui	s3,0x0
   13674:	04913423          	sd	s1,72(sp)
   13678:	05213023          	sd	s2,64(sp)
   1367c:	03513423          	sd	s5,40(sp)
   13680:	01713c23          	sd	s7,24(sp)
   13684:	01813823          	sd	s8,16(sp)
   13688:	04113c23          	sd	ra,88(sp)
   1368c:	04813823          	sd	s0,80(sp)
   13690:	03613023          	sd	s6,32(sp)
   13694:	01913423          	sd	s9,8(sp)
   13698:	01a13023          	sd	s10,0(sp)
   1369c:	00050913          	mv	s2,a0
   136a0:	00058b93          	mv	s7,a1
   136a4:	1f8a0a93          	addi	s5,s4,504
   136a8:	00100493          	li	s1,1
   136ac:	fff00c13          	li	s8,-1
   136b0:	00098993          	mv	s3,s3
   136b4:	1f8a3b03          	ld	s6,504(s4)
   136b8:	0c0b0663          	beqz	s6,13784 <__call_exitprocs+0x124>
   136bc:	000a8d13          	mv	s10,s5
   136c0:	008b2403          	lw	s0,8(s6)
   136c4:	fff4041b          	addiw	s0,s0,-1
   136c8:	02045263          	bgez	s0,136ec <__call_exitprocs+0x8c>
   136cc:	08c0006f          	j	13758 <__call_exitprocs+0xf8>
   136d0:	02040793          	addi	a5,s0,32
   136d4:	00379793          	slli	a5,a5,0x3
   136d8:	00fb07b3          	add	a5,s6,a5
   136dc:	1107b783          	ld	a5,272(a5)
   136e0:	00fb8a63          	beq	s7,a5,136f4 <__call_exitprocs+0x94>
   136e4:	fff4041b          	addiw	s0,s0,-1
   136e8:	07840863          	beq	s0,s8,13758 <__call_exitprocs+0xf8>
   136ec:	00040713          	mv	a4,s0
   136f0:	fe0b90e3          	bnez	s7,136d0 <__call_exitprocs+0x70>
   136f4:	008b2783          	lw	a5,8(s6)
   136f8:	00371713          	slli	a4,a4,0x3
   136fc:	00eb0733          	add	a4,s6,a4
   13700:	fff7879b          	addiw	a5,a5,-1
   13704:	01073683          	ld	a3,16(a4)
   13708:	0a878e63          	beq	a5,s0,137c4 <__call_exitprocs+0x164>
   1370c:	00073823          	sd	zero,16(a4)
   13710:	fc068ae3          	beqz	a3,136e4 <__call_exitprocs+0x84>
   13714:	310b2783          	lw	a5,784(s6)
   13718:	0084963b          	sllw	a2,s1,s0
   1371c:	008b2c83          	lw	s9,8(s6)
   13720:	00f677b3          	and	a5,a2,a5
   13724:	08078c63          	beqz	a5,137bc <__call_exitprocs+0x15c>
   13728:	314b2783          	lw	a5,788(s6)
   1372c:	00f67633          	and	a2,a2,a5
   13730:	08061e63          	bnez	a2,137cc <__call_exitprocs+0x16c>
   13734:	11073583          	ld	a1,272(a4)
   13738:	00090513          	mv	a0,s2
   1373c:	000680e7          	jalr	a3
   13740:	008b2783          	lw	a5,8(s6)
   13744:	f79798e3          	bne	a5,s9,136b4 <__call_exitprocs+0x54>
   13748:	000d3783          	ld	a5,0(s10)
   1374c:	f76794e3          	bne	a5,s6,136b4 <__call_exitprocs+0x54>
   13750:	fff4041b          	addiw	s0,s0,-1
   13754:	f9841ce3          	bne	s0,s8,136ec <__call_exitprocs+0x8c>
   13758:	02098663          	beqz	s3,13784 <__call_exitprocs+0x124>
   1375c:	008b2783          	lw	a5,8(s6)
   13760:	06079c63          	bnez	a5,137d8 <__call_exitprocs+0x178>
   13764:	000b3783          	ld	a5,0(s6)
   13768:	08078263          	beqz	a5,137ec <__call_exitprocs+0x18c>
   1376c:	000b0513          	mv	a0,s6
   13770:	00fd3023          	sd	a5,0(s10)
   13774:	fffed317          	auipc	t1,0xfffed
   13778:	88c300e7          	jalr	t1,-1908 # 0 <_ftext-0x10000>
   1377c:	000d3b03          	ld	s6,0(s10)
   13780:	f40b10e3          	bnez	s6,136c0 <__call_exitprocs+0x60>
   13784:	05813083          	ld	ra,88(sp)
   13788:	05013403          	ld	s0,80(sp)
   1378c:	04813483          	ld	s1,72(sp)
   13790:	04013903          	ld	s2,64(sp)
   13794:	03813983          	ld	s3,56(sp)
   13798:	03013a03          	ld	s4,48(sp)
   1379c:	02813a83          	ld	s5,40(sp)
   137a0:	02013b03          	ld	s6,32(sp)
   137a4:	01813b83          	ld	s7,24(sp)
   137a8:	01013c03          	ld	s8,16(sp)
   137ac:	00813c83          	ld	s9,8(sp)
   137b0:	00013d03          	ld	s10,0(sp)
   137b4:	06010113          	addi	sp,sp,96
   137b8:	00008067          	ret
   137bc:	000680e7          	jalr	a3
   137c0:	f81ff06f          	j	13740 <__call_exitprocs+0xe0>
   137c4:	008b2423          	sw	s0,8(s6)
   137c8:	f49ff06f          	j	13710 <__call_exitprocs+0xb0>
   137cc:	11073503          	ld	a0,272(a4)
   137d0:	000680e7          	jalr	a3
   137d4:	f6dff06f          	j	13740 <__call_exitprocs+0xe0>
   137d8:	000b3783          	ld	a5,0(s6)
   137dc:	000b0d13          	mv	s10,s6
   137e0:	00078b13          	mv	s6,a5
   137e4:	ec0b1ee3          	bnez	s6,136c0 <__call_exitprocs+0x60>
   137e8:	f9dff06f          	j	13784 <__call_exitprocs+0x124>
   137ec:	00000793          	li	a5,0
   137f0:	fedff06f          	j	137dc <__call_exitprocs+0x17c>

00000000000137f4 <quorem>:
   137f4:	fc010113          	addi	sp,sp,-64
   137f8:	03213023          	sd	s2,32(sp)
   137fc:	01452783          	lw	a5,20(a0)
   13800:	0145a903          	lw	s2,20(a1)
   13804:	02113c23          	sd	ra,56(sp)
   13808:	02813823          	sd	s0,48(sp)
   1380c:	02913423          	sd	s1,40(sp)
   13810:	01313c23          	sd	s3,24(sp)
   13814:	01413823          	sd	s4,16(sp)
   13818:	01513423          	sd	s5,8(sp)
   1381c:	1b27ce63          	blt	a5,s2,139d8 <quorem+0x1e4>
   13820:	fff9091b          	addiw	s2,s2,-1
   13824:	00090f13          	mv	t5,s2
   13828:	002f1f13          	slli	t5,t5,0x2
   1382c:	01858413          	addi	s0,a1,24
   13830:	01e409b3          	add	s3,s0,t5
   13834:	01850a13          	addi	s4,a0,24
   13838:	01ea0f33          	add	t5,s4,t5
   1383c:	0009a783          	lw	a5,0(s3) # 0 <_ftext-0x10000>
   13840:	000f2483          	lw	s1,0(t5)
   13844:	0017879b          	addiw	a5,a5,1
   13848:	02f4d4bb          	divuw	s1,s1,a5
   1384c:	0a048e63          	beqz	s1,13908 <quorem+0x114>
   13850:	00010337          	lui	t1,0x10
   13854:	00040e93          	mv	t4,s0
   13858:	000a0e13          	mv	t3,s4
   1385c:	00000613          	li	a2,0
   13860:	00000713          	li	a4,0
   13864:	fff3031b          	addiw	t1,t1,-1
   13868:	004e8e93          	addi	t4,t4,4
   1386c:	ffcea803          	lw	a6,-4(t4)
   13870:	000e2683          	lw	a3,0(t3)
   13874:	004e0e13          	addi	t3,t3,4
   13878:	006878b3          	and	a7,a6,t1
   1387c:	029888bb          	mulw	a7,a7,s1
   13880:	0108581b          	srliw	a6,a6,0x10
   13884:	0066f7b3          	and	a5,a3,t1
   13888:	0106d69b          	srliw	a3,a3,0x10
   1388c:	0298083b          	mulw	a6,a6,s1
   13890:	00c888bb          	addw	a7,a7,a2
   13894:	0108d61b          	srliw	a2,a7,0x10
   13898:	0068f8b3          	and	a7,a7,t1
   1389c:	4117073b          	subw	a4,a4,a7
   138a0:	00f707bb          	addw	a5,a4,a5
   138a4:	4107d71b          	sraiw	a4,a5,0x10
   138a8:	0067f7b3          	and	a5,a5,t1
   138ac:	00c8063b          	addw	a2,a6,a2
   138b0:	00667833          	and	a6,a2,t1
   138b4:	410686bb          	subw	a3,a3,a6
   138b8:	00e6873b          	addw	a4,a3,a4
   138bc:	0107169b          	slliw	a3,a4,0x10
   138c0:	00f6e6b3          	or	a3,a3,a5
   138c4:	fede2e23          	sw	a3,-4(t3)
   138c8:	0106561b          	srliw	a2,a2,0x10
   138cc:	4107571b          	sraiw	a4,a4,0x10
   138d0:	f9d9fce3          	bleu	t4,s3,13868 <quorem+0x74>
   138d4:	000f2783          	lw	a5,0(t5)
   138d8:	02079863          	bnez	a5,13908 <quorem+0x114>
   138dc:	ffcf0793          	addi	a5,t5,-4
   138e0:	02fa7263          	bleu	a5,s4,13904 <quorem+0x110>
   138e4:	ffcf2703          	lw	a4,-4(t5)
   138e8:	00070863          	beqz	a4,138f8 <quorem+0x104>
   138ec:	0180006f          	j	13904 <quorem+0x110>
   138f0:	0007a703          	lw	a4,0(a5)
   138f4:	00071863          	bnez	a4,13904 <quorem+0x110>
   138f8:	ffc78793          	addi	a5,a5,-4
   138fc:	fff9091b          	addiw	s2,s2,-1
   13900:	fefa68e3          	bltu	s4,a5,138f0 <quorem+0xfc>
   13904:	01252a23          	sw	s2,20(a0)
   13908:	00050a93          	mv	s5,a0
   1390c:	081030ef          	jal	1718c <__mcmp>
   13910:	0a054063          	bltz	a0,139b0 <quorem+0x1bc>
   13914:	000105b7          	lui	a1,0x10
   13918:	0014849b          	addiw	s1,s1,1
   1391c:	000a0613          	mv	a2,s4
   13920:	00000793          	li	a5,0
   13924:	fff5859b          	addiw	a1,a1,-1
   13928:	00440413          	addi	s0,s0,4
   1392c:	ffc42683          	lw	a3,-4(s0)
   13930:	00062703          	lw	a4,0(a2)
   13934:	00460613          	addi	a2,a2,4
   13938:	00b6f833          	and	a6,a3,a1
   1393c:	410787bb          	subw	a5,a5,a6
   13940:	00b77833          	and	a6,a4,a1
   13944:	010787bb          	addw	a5,a5,a6
   13948:	0106d69b          	srliw	a3,a3,0x10
   1394c:	0107571b          	srliw	a4,a4,0x10
   13950:	40d7073b          	subw	a4,a4,a3
   13954:	4107d69b          	sraiw	a3,a5,0x10
   13958:	00d706bb          	addw	a3,a4,a3
   1395c:	0106981b          	slliw	a6,a3,0x10
   13960:	00b7f733          	and	a4,a5,a1
   13964:	00e86733          	or	a4,a6,a4
   13968:	fee62e23          	sw	a4,-4(a2)
   1396c:	4106d79b          	sraiw	a5,a3,0x10
   13970:	fa89fce3          	bleu	s0,s3,13928 <quorem+0x134>
   13974:	00291713          	slli	a4,s2,0x2
   13978:	00ea0733          	add	a4,s4,a4
   1397c:	00072783          	lw	a5,0(a4)
   13980:	02079863          	bnez	a5,139b0 <quorem+0x1bc>
   13984:	ffc70793          	addi	a5,a4,-4
   13988:	02fa7263          	bleu	a5,s4,139ac <quorem+0x1b8>
   1398c:	ffc72703          	lw	a4,-4(a4)
   13990:	00070863          	beqz	a4,139a0 <quorem+0x1ac>
   13994:	0180006f          	j	139ac <quorem+0x1b8>
   13998:	0007a703          	lw	a4,0(a5)
   1399c:	00071863          	bnez	a4,139ac <quorem+0x1b8>
   139a0:	ffc78793          	addi	a5,a5,-4
   139a4:	fff9091b          	addiw	s2,s2,-1
   139a8:	fefa68e3          	bltu	s4,a5,13998 <quorem+0x1a4>
   139ac:	012aaa23          	sw	s2,20(s5)
   139b0:	00048513          	mv	a0,s1
   139b4:	03813083          	ld	ra,56(sp)
   139b8:	03013403          	ld	s0,48(sp)
   139bc:	02813483          	ld	s1,40(sp)
   139c0:	02013903          	ld	s2,32(sp)
   139c4:	01813983          	ld	s3,24(sp)
   139c8:	01013a03          	ld	s4,16(sp)
   139cc:	00813a83          	ld	s5,8(sp)
   139d0:	04010113          	addi	sp,sp,64
   139d4:	00008067          	ret
   139d8:	00000513          	li	a0,0
   139dc:	fd9ff06f          	j	139b4 <quorem+0x1c0>

00000000000139e0 <_dtoa_r>:
   139e0:	e20585d3          	fmv.x.d	a1,fa1
   139e4:	06053883          	ld	a7,96(a0)
   139e8:	f3010113          	addi	sp,sp,-208
   139ec:	0c813023          	sd	s0,192(sp)
   139f0:	0a913c23          	sd	s1,184(sp)
   139f4:	0b313423          	sd	s3,168(sp)
   139f8:	09613823          	sd	s6,144(sp)
   139fc:	07913c23          	sd	s9,120(sp)
   13a00:	07a13823          	sd	s10,112(sp)
   13a04:	0c113423          	sd	ra,200(sp)
   13a08:	0b213823          	sd	s2,176(sp)
   13a0c:	0b413023          	sd	s4,160(sp)
   13a10:	09513c23          	sd	s5,152(sp)
   13a14:	09713423          	sd	s7,136(sp)
   13a18:	09813023          	sd	s8,128(sp)
   13a1c:	07b13423          	sd	s11,104(sp)
   13a20:	00e13023          	sd	a4,0(sp)
   13a24:	00050413          	mv	s0,a0
   13a28:	00060993          	mv	s3,a2
   13a2c:	00068c93          	mv	s9,a3
   13a30:	00078493          	mv	s1,a5
   13a34:	00080b13          	mv	s6,a6
   13a38:	00058d13          	mv	s10,a1
   13a3c:	02088263          	beqz	a7,13a60 <_dtoa_r+0x80>
   13a40:	06852603          	lw	a2,104(a0)
   13a44:	00100693          	li	a3,1
   13a48:	00088593          	mv	a1,a7
   13a4c:	00c696bb          	sllw	a3,a3,a2
   13a50:	00c8a423          	sw	a2,8(a7)
   13a54:	00d8a623          	sw	a3,12(a7)
   13a58:	6e9020ef          	jal	16940 <_Bfree>
   13a5c:	06043023          	sd	zero,96(s0)
   13a60:	420d5913          	srai	s2,s10,0x20
   13a64:	0c094063          	bltz	s2,13b24 <_dtoa_r+0x144>
   13a68:	0004a023          	sw	zero,0(s1)
   13a6c:	7ff007b7          	lui	a5,0x7ff00
   13a70:	00f976b3          	and	a3,s2,a5
   13a74:	06f68a63          	beq	a3,a5,13ae8 <_dtoa_r+0x108>
   13a78:	f20007d3          	fmv.d.x	fa5,zero
   13a7c:	f20d0753          	fmv.d.x	fa4,s10
   13a80:	a2f727d3          	feq.d	a5,fa4,fa5
   13a84:	0c078463          	beqz	a5,13b4c <_dtoa_r+0x16c>
   13a88:	00013703          	ld	a4,0(sp)
   13a8c:	00100793          	li	a5,1
   13a90:	00f72023          	sw	a5,0(a4)
   13a94:	480b0a63          	beqz	s6,13f28 <_dtoa_r+0x548>
   13a98:	000217b7          	lui	a5,0x21
   13a9c:	b3178793          	addi	a5,a5,-1231 # 20b31 <zeroes.4123+0x71>
   13aa0:	00021537          	lui	a0,0x21
   13aa4:	00fb3023          	sd	a5,0(s6)
   13aa8:	b3050513          	addi	a0,a0,-1232 # 20b30 <zeroes.4123+0x70>
   13aac:	0c813083          	ld	ra,200(sp)
   13ab0:	0c013403          	ld	s0,192(sp)
   13ab4:	0b813483          	ld	s1,184(sp)
   13ab8:	0b013903          	ld	s2,176(sp)
   13abc:	0a813983          	ld	s3,168(sp)
   13ac0:	0a013a03          	ld	s4,160(sp)
   13ac4:	09813a83          	ld	s5,152(sp)
   13ac8:	09013b03          	ld	s6,144(sp)
   13acc:	08813b83          	ld	s7,136(sp)
   13ad0:	08013c03          	ld	s8,128(sp)
   13ad4:	07813c83          	ld	s9,120(sp)
   13ad8:	07013d03          	ld	s10,112(sp)
   13adc:	06813d83          	ld	s11,104(sp)
   13ae0:	0d010113          	addi	sp,sp,208
   13ae4:	00008067          	ret
   13ae8:	00013703          	ld	a4,0(sp)
   13aec:	000027b7          	lui	a5,0x2
   13af0:	70f7879b          	addiw	a5,a5,1807
   13af4:	00f72023          	sw	a5,0(a4)
   13af8:	00cd1793          	slli	a5,s10,0xc
   13afc:	3e079863          	bnez	a5,13eec <_dtoa_r+0x50c>
   13b00:	00021537          	lui	a0,0x21
   13b04:	b4050513          	addi	a0,a0,-1216 # 20b40 <zeroes.4123+0x80>
   13b08:	fa0b02e3          	beqz	s6,13aac <_dtoa_r+0xcc>
   13b0c:	00354703          	lbu	a4,3(a0)
   13b10:	00350793          	addi	a5,a0,3
   13b14:	00070463          	beqz	a4,13b1c <_dtoa_r+0x13c>
   13b18:	00850793          	addi	a5,a0,8
   13b1c:	00fb3023          	sd	a5,0(s6)
   13b20:	f8dff06f          	j	13aac <_dtoa_r+0xcc>
   13b24:	800007b7          	lui	a5,0x80000
   13b28:	fff7c793          	not	a5,a5
   13b2c:	020d1713          	slli	a4,s10,0x20
   13b30:	00f97933          	and	s2,s2,a5
   13b34:	02091793          	slli	a5,s2,0x20
   13b38:	02075713          	srli	a4,a4,0x20
   13b3c:	00100693          	li	a3,1
   13b40:	00d4a023          	sw	a3,0(s1)
   13b44:	00f76d33          	or	s10,a4,a5
   13b48:	f25ff06f          	j	13a6c <_dtoa_r+0x8c>
   13b4c:	f20d05d3          	fmv.d.x	fa1,s10
   13b50:	05810693          	addi	a3,sp,88
   13b54:	05c10613          	addi	a2,sp,92
   13b58:	00040513          	mv	a0,s0
   13b5c:	271030ef          	jal	175cc <__d2b>
   13b60:	02a13023          	sd	a0,32(sp)
   13b64:	0149581b          	srliw	a6,s2,0x14
   13b68:	38081863          	bnez	a6,13ef8 <_dtoa_r+0x518>
   13b6c:	05812603          	lw	a2,88(sp)
   13b70:	05c12803          	lw	a6,92(sp)
   13b74:	02000793          	li	a5,32
   13b78:	0106083b          	addw	a6,a2,a6
   13b7c:	4328069b          	addiw	a3,a6,1074
   13b80:	6ad7de63          	ble	a3,a5,1423c <_dtoa_r+0x85c>
   13b84:	04000593          	li	a1,64
   13b88:	4128049b          	addiw	s1,a6,1042
   13b8c:	000d079b          	sext.w	a5,s10
   13b90:	40d585bb          	subw	a1,a1,a3
   13b94:	0097d7bb          	srlw	a5,a5,s1
   13b98:	00b914bb          	sllw	s1,s2,a1
   13b9c:	0097e4b3          	or	s1,a5,s1
   13ba0:	d21487d3          	fcvt.d.wu	fa5,s1
   13ba4:	fe1006b7          	lui	a3,0xfe100
   13ba8:	fff8081b          	addiw	a6,a6,-1
   13bac:	e20784d3          	fmv.x.d	s1,fa5
   13bb0:	00100913          	li	s2,1
   13bb4:	4204d793          	srai	a5,s1,0x20
   13bb8:	00d787bb          	addw	a5,a5,a3
   13bbc:	02049493          	slli	s1,s1,0x20
   13bc0:	02079793          	slli	a5,a5,0x20
   13bc4:	0204d493          	srli	s1,s1,0x20
   13bc8:	00f4e4b3          	or	s1,s1,a5
   13bcc:	000237b7          	lui	a5,0x23
   13bd0:	1987b787          	fld	fa5,408(a5) # 23198 <__wctomb+0x8>
   13bd4:	f2048753          	fmv.d.x	fa4,s1
   13bd8:	000237b7          	lui	a5,0x23
   13bdc:	0af77653          	fsub.d	fa2,fa4,fa5
   13be0:	1a87b787          	fld	fa5,424(a5) # 231a8 <__wctomb+0x18>
   13be4:	000237b7          	lui	a5,0x23
   13be8:	1a07b687          	fld	fa3,416(a5) # 231a0 <__wctomb+0x10>
   13bec:	000237b7          	lui	a5,0x23
   13bf0:	d2080753          	fcvt.d.w	fa4,a6
   13bf4:	7ad677c3          	fmadd.d	fa5,fa2,fa3,fa5
   13bf8:	1b07b687          	fld	fa3,432(a5) # 231b0 <__wctomb+0x20>
   13bfc:	7ad777c3          	fmadd.d	fa5,fa4,fa3,fa5
   13c00:	f2000753          	fmv.d.x	fa4,zero
   13c04:	a2e797d3          	flt.d	a5,fa5,fa4
   13c08:	c2079bd3          	fcvt.w.d	s7,fa5,rtz
   13c0c:	5e079e63          	bnez	a5,14208 <_dtoa_r+0x828>
   13c10:	00100793          	li	a5,1
   13c14:	02f12823          	sw	a5,48(sp)
   13c18:	01600793          	li	a5,22
   13c1c:	0377e663          	bltu	a5,s7,13c48 <_dtoa_r+0x268>
   13c20:	000207b7          	lui	a5,0x20
   13c24:	003b9693          	slli	a3,s7,0x3
   13c28:	2f078793          	addi	a5,a5,752 # 202f0 <__mprec_tens>
   13c2c:	00f687b3          	add	a5,a3,a5
   13c30:	0007b787          	fld	fa5,0(a5)
   13c34:	f20d0753          	fmv.d.x	fa4,s10
   13c38:	a2f717d3          	flt.d	a5,fa4,fa5
   13c3c:	60078863          	beqz	a5,1424c <_dtoa_r+0x86c>
   13c40:	fffb8b9b          	addiw	s7,s7,-1
   13c44:	02012823          	sw	zero,48(sp)
   13c48:	4106083b          	subw	a6,a2,a6
   13c4c:	fff80d9b          	addiw	s11,a6,-1
   13c50:	00000813          	li	a6,0
   13c54:	2e0dc063          	bltz	s11,13f34 <_dtoa_r+0x554>
   13c58:	5c0bc263          	bltz	s7,1421c <_dtoa_r+0x83c>
   13c5c:	017d8dbb          	addw	s11,s11,s7
   13c60:	03712423          	sw	s7,40(sp)
   13c64:	00000c13          	li	s8,0
   13c68:	00900793          	li	a5,9
   13c6c:	2d37ea63          	bltu	a5,s3,13f40 <_dtoa_r+0x560>
   13c70:	00500793          	li	a5,5
   13c74:	00100a13          	li	s4,1
   13c78:	0137d663          	ble	s3,a5,13c84 <_dtoa_r+0x2a4>
   13c7c:	ffc9899b          	addiw	s3,s3,-4
   13c80:	00000a13          	li	s4,0
   13c84:	00300793          	li	a5,3
   13c88:	2af982e3          	beq	s3,a5,1472c <_dtoa_r+0xd4c>
   13c8c:	1f37dce3          	ble	s3,a5,14684 <_dtoa_r+0xca4>
   13c90:	00400793          	li	a5,4
   13c94:	0cf98ae3          	beq	s3,a5,14568 <_dtoa_r+0xb88>
   13c98:	00100793          	li	a5,1
   13c9c:	00f12823          	sw	a5,16(sp)
   13ca0:	00500793          	li	a5,5
   13ca4:	1ef996e3          	bne	s3,a5,14690 <_dtoa_r+0xcb0>
   13ca8:	019b87bb          	addw	a5,s7,s9
   13cac:	00178a9b          	addiw	s5,a5,1
   13cb0:	02f12a23          	sw	a5,52(sp)
   13cb4:	000a8513          	mv	a0,s5
   13cb8:	000a8493          	mv	s1,s5
   13cbc:	1b505ee3          	blez	s5,14678 <_dtoa_r+0xc98>
   13cc0:	06042423          	sw	zero,104(s0)
   13cc4:	01f00793          	li	a5,31
   13cc8:	00000593          	li	a1,0
   13ccc:	02a7f463          	bleu	a0,a5,13cf4 <_dtoa_r+0x314>
   13cd0:	00100613          	li	a2,1
   13cd4:	00400693          	li	a3,4
   13cd8:	0016969b          	slliw	a3,a3,0x1
   13cdc:	00068793          	mv	a5,a3
   13ce0:	01c78793          	addi	a5,a5,28
   13ce4:	00060593          	mv	a1,a2
   13ce8:	0016061b          	addiw	a2,a2,1
   13cec:	fef576e3          	bleu	a5,a0,13cd8 <_dtoa_r+0x2f8>
   13cf0:	06b42423          	sw	a1,104(s0)
   13cf4:	00040513          	mv	a0,s0
   13cf8:	03013c23          	sd	a6,56(sp)
   13cfc:	399020ef          	jal	16894 <_Balloc>
   13d00:	00a13423          	sd	a0,8(sp)
   13d04:	06a43023          	sd	a0,96(s0)
   13d08:	00e00793          	li	a5,14
   13d0c:	03813803          	ld	a6,56(sp)
   13d10:	2697e463          	bltu	a5,s1,13f78 <_dtoa_r+0x598>
   13d14:	260a0263          	beqz	s4,13f78 <_dtoa_r+0x598>
   13d18:	03a13c23          	sd	s10,56(sp)
   13d1c:	317054e3          	blez	s7,14824 <_dtoa_r+0xe44>
   13d20:	00fbf713          	andi	a4,s7,15
   13d24:	00371693          	slli	a3,a4,0x3
   13d28:	00020737          	lui	a4,0x20
   13d2c:	404bd79b          	sraiw	a5,s7,0x4
   13d30:	2f070713          	addi	a4,a4,752 # 202f0 <__mprec_tens>
   13d34:	00e68733          	add	a4,a3,a4
   13d38:	0107f693          	andi	a3,a5,16
   13d3c:	00073687          	fld	fa3,0(a4)
   13d40:	f20d07d3          	fmv.d.x	fa5,s10
   13d44:	00200713          	li	a4,2
   13d48:	00068c63          	beqz	a3,13d60 <_dtoa_r+0x380>
   13d4c:	00020737          	lui	a4,0x20
   13d50:	40073707          	fld	fa4,1024(a4) # 20400 <__mprec_bigtens+0x20>
   13d54:	00f7f793          	andi	a5,a5,15
   13d58:	00300713          	li	a4,3
   13d5c:	1ae7f7d3          	fdiv.d	fa5,fa5,fa4
   13d60:	02078663          	beqz	a5,13d8c <_dtoa_r+0x3ac>
   13d64:	000206b7          	lui	a3,0x20
   13d68:	3e068693          	addi	a3,a3,992 # 203e0 <__mprec_bigtens>
   13d6c:	0017f613          	andi	a2,a5,1
   13d70:	4017d79b          	sraiw	a5,a5,0x1
   13d74:	00060863          	beqz	a2,13d84 <_dtoa_r+0x3a4>
   13d78:	0006b707          	fld	fa4,0(a3)
   13d7c:	0017071b          	addiw	a4,a4,1
   13d80:	12e6f6d3          	fmul.d	fa3,fa3,fa4
   13d84:	00868693          	addi	a3,a3,8
   13d88:	fe0792e3          	bnez	a5,13d6c <_dtoa_r+0x38c>
   13d8c:	1ad7f7d3          	fdiv.d	fa5,fa5,fa3
   13d90:	03012783          	lw	a5,48(sp)
   13d94:	00078a63          	beqz	a5,13da8 <_dtoa_r+0x3c8>
   13d98:	000237b7          	lui	a5,0x23
   13d9c:	1b87b707          	fld	fa4,440(a5) # 231b8 <__wctomb+0x28>
   13da0:	a2e797d3          	flt.d	a5,fa5,fa4
   13da4:	440790e3          	bnez	a5,149e4 <_dtoa_r+0x1004>
   13da8:	000237b7          	lui	a5,0x23
   13dac:	d20706d3          	fcvt.d.w	fa3,a4
   13db0:	1c87b707          	fld	fa4,456(a5) # 231c8 <__wctomb+0x38>
   13db4:	fcc006b7          	lui	a3,0xfcc00
   13db8:	72f6f743          	fmadd.d	fa4,fa3,fa5,fa4
   13dbc:	e2070753          	fmv.x.d	a4,fa4
   13dc0:	42075793          	srai	a5,a4,0x20
   13dc4:	00d787bb          	addw	a5,a5,a3
   13dc8:	02071713          	slli	a4,a4,0x20
   13dcc:	02079793          	slli	a5,a5,0x20
   13dd0:	02075713          	srli	a4,a4,0x20
   13dd4:	00f76733          	or	a4,a4,a5
   13dd8:	180a86e3          	beqz	s5,14764 <_dtoa_r+0xd84>
   13ddc:	000b8693          	mv	a3,s7
   13de0:	000a8613          	mv	a2,s5
   13de4:	01012783          	lw	a5,16(sp)
   13de8:	300782e3          	beqz	a5,148ec <_dtoa_r+0xf0c>
   13dec:	fff6079b          	addiw	a5,a2,-1
   13df0:	000205b7          	lui	a1,0x20
   13df4:	2f058593          	addi	a1,a1,752 # 202f0 <__mprec_tens>
   13df8:	00379793          	slli	a5,a5,0x3
   13dfc:	00b787b3          	add	a5,a5,a1
   13e00:	000235b7          	lui	a1,0x23
   13e04:	0007b687          	fld	fa3,0(a5)
   13e08:	1d85b707          	fld	fa4,472(a1) # 231d8 <__wctomb+0x48>
   13e0c:	c20797d3          	fcvt.w.d	a5,fa5,rtz
   13e10:	00813503          	ld	a0,8(sp)
   13e14:	1ad77753          	fdiv.d	fa4,fa4,fa3
   13e18:	d20786d3          	fcvt.d.w	fa3,a5
   13e1c:	0307879b          	addiw	a5,a5,48
   13e20:	0ff7f793          	andi	a5,a5,255
   13e24:	0ad7f7d3          	fsub.d	fa5,fa5,fa3
   13e28:	f20706d3          	fmv.d.x	fa3,a4
   13e2c:	00f50023          	sb	a5,0(a0)
   13e30:	00150493          	addi	s1,a0,1
   13e34:	0ad77753          	fsub.d	fa4,fa4,fa3
   13e38:	a2e79753          	flt.d	a4,fa5,fa4
   13e3c:	08071063          	bnez	a4,13ebc <_dtoa_r+0x4dc>
   13e40:	00023737          	lui	a4,0x23
   13e44:	1b873587          	fld	fa1,440(a4) # 231b8 <__wctomb+0x28>
   13e48:	0af5f6d3          	fsub.d	fa3,fa1,fa5
   13e4c:	a2e69753          	flt.d	a4,fa3,fa4
   13e50:	40071ae3          	bnez	a4,14a64 <_dtoa_r+0x1084>
   13e54:	00100793          	li	a5,1
   13e58:	1ac7d4e3          	ble	a2,a5,14800 <_dtoa_r+0xe20>
   13e5c:	000237b7          	lui	a5,0x23
   13e60:	ffe6061b          	addiw	a2,a2,-2
   13e64:	02061613          	slli	a2,a2,0x20
   13e68:	1c07b607          	fld	fa2,448(a5) # 231c0 <__wctomb+0x30>
   13e6c:	00813783          	ld	a5,8(sp)
   13e70:	02065613          	srli	a2,a2,0x20
   13e74:	00260613          	addi	a2,a2,2
   13e78:	00c78633          	add	a2,a5,a2
   13e7c:	0140006f          	j	13e90 <_dtoa_r+0x4b0>
   13e80:	0af5f6d3          	fsub.d	fa3,fa1,fa5
   13e84:	a2e69753          	flt.d	a4,fa3,fa4
   13e88:	3c071ee3          	bnez	a4,14a64 <_dtoa_r+0x1084>
   13e8c:	16960ae3          	beq	a2,s1,14800 <_dtoa_r+0xe20>
   13e90:	12c7f7d3          	fmul.d	fa5,fa5,fa2
   13e94:	12c77753          	fmul.d	fa4,fa4,fa2
   13e98:	00148493          	addi	s1,s1,1
   13e9c:	c20797d3          	fcvt.w.d	a5,fa5,rtz
   13ea0:	d20786d3          	fcvt.d.w	fa3,a5
   13ea4:	0307879b          	addiw	a5,a5,48
   13ea8:	0ff7f793          	andi	a5,a5,255
   13eac:	0ad7f7d3          	fsub.d	fa5,fa5,fa3
   13eb0:	fef48fa3          	sb	a5,-1(s1)
   13eb4:	a2e79753          	flt.d	a4,fa5,fa4
   13eb8:	fc0704e3          	beqz	a4,13e80 <_dtoa_r+0x4a0>
   13ebc:	00068b93          	mv	s7,a3
   13ec0:	02013583          	ld	a1,32(sp)
   13ec4:	00040513          	mv	a0,s0
   13ec8:	001b8b9b          	addiw	s7,s7,1
   13ecc:	275020ef          	jal	16940 <_Bfree>
   13ed0:	00013783          	ld	a5,0(sp)
   13ed4:	00048023          	sb	zero,0(s1)
   13ed8:	0177a023          	sw	s7,0(a5)
   13edc:	0c0b0ce3          	beqz	s6,147b4 <_dtoa_r+0xdd4>
   13ee0:	009b3023          	sd	s1,0(s6)
   13ee4:	00813503          	ld	a0,8(sp)
   13ee8:	bc5ff06f          	j	13aac <_dtoa_r+0xcc>
   13eec:	00021537          	lui	a0,0x21
   13ef0:	b5050513          	addi	a0,a0,-1200 # 20b50 <zeroes.4123+0x90>
   13ef4:	c15ff06f          	j	13b08 <_dtoa_r+0x128>
   13ef8:	00cd1793          	slli	a5,s10,0xc
   13efc:	02c7d693          	srli	a3,a5,0x2c
   13f00:	3ff007b7          	lui	a5,0x3ff00
   13f04:	00f6e7b3          	or	a5,a3,a5
   13f08:	020d1493          	slli	s1,s10,0x20
   13f0c:	02079793          	slli	a5,a5,0x20
   13f10:	0204d493          	srli	s1,s1,0x20
   13f14:	00f4e4b3          	or	s1,s1,a5
   13f18:	c018081b          	addiw	a6,a6,-1023
   13f1c:	05812603          	lw	a2,88(sp)
   13f20:	00000913          	li	s2,0
   13f24:	ca9ff06f          	j	13bcc <_dtoa_r+0x1ec>
   13f28:	00021537          	lui	a0,0x21
   13f2c:	b3050513          	addi	a0,a0,-1232 # 20b30 <zeroes.4123+0x70>
   13f30:	b7dff06f          	j	13aac <_dtoa_r+0xcc>
   13f34:	41b0083b          	negw	a6,s11
   13f38:	00000d93          	li	s11,0
   13f3c:	d1dff06f          	j	13c58 <_dtoa_r+0x278>
   13f40:	06042423          	sw	zero,104(s0)
   13f44:	00000593          	li	a1,0
   13f48:	00040513          	mv	a0,s0
   13f4c:	03013c23          	sd	a6,56(sp)
   13f50:	145020ef          	jal	16894 <_Balloc>
   13f54:	03813803          	ld	a6,56(sp)
   13f58:	fff00a93          	li	s5,-1
   13f5c:	00100793          	li	a5,1
   13f60:	00a13423          	sd	a0,8(sp)
   13f64:	06a43023          	sd	a0,96(s0)
   13f68:	03512a23          	sw	s5,52(sp)
   13f6c:	00000993          	li	s3,0
   13f70:	00000c93          	li	s9,0
   13f74:	00f12823          	sw	a5,16(sp)
   13f78:	05c12783          	lw	a5,92(sp)
   13f7c:	0e07ca63          	bltz	a5,14070 <_dtoa_r+0x690>
   13f80:	00e00693          	li	a3,14
   13f84:	0f76c663          	blt	a3,s7,14070 <_dtoa_r+0x690>
   13f88:	000207b7          	lui	a5,0x20
   13f8c:	003b9693          	slli	a3,s7,0x3
   13f90:	2f078793          	addi	a5,a5,752 # 202f0 <__mprec_tens>
   13f94:	00f687b3          	add	a5,a3,a5
   13f98:	0007b687          	fld	fa3,0(a5)
   13f9c:	5e0cc663          	bltz	s9,14588 <_dtoa_r+0xba8>
   13fa0:	f20d0653          	fmv.d.x	fa2,s10
   13fa4:	00813703          	ld	a4,8(sp)
   13fa8:	22d69553          	fneg.d	fa0,fa3
   13fac:	1ad67753          	fdiv.d	fa4,fa2,fa3
   13fb0:	00170493          	addi	s1,a4,1
   13fb4:	c20717d3          	fcvt.w.d	a5,fa4,rtz
   13fb8:	d20787d3          	fcvt.d.w	fa5,a5
   13fbc:	0307869b          	addiw	a3,a5,48
   13fc0:	00d70023          	sb	a3,0(a4)
   13fc4:	00100713          	li	a4,1
   13fc8:	62f577c3          	fmadd.d	fa5,fa0,fa5,fa2
   13fcc:	2aea88e3          	beq	s5,a4,14a7c <_dtoa_r+0x109c>
   13fd0:	000237b7          	lui	a5,0x23
   13fd4:	1c07b587          	fld	fa1,448(a5) # 231c0 <__wctomb+0x30>
   13fd8:	f2000653          	fmv.d.x	fa2,zero
   13fdc:	12b7f7d3          	fmul.d	fa5,fa5,fa1
   13fe0:	a2c7a7d3          	feq.d	a5,fa5,fa2
   13fe4:	ec079ee3          	bnez	a5,13ec0 <_dtoa_r+0x4e0>
   13fe8:	ffea869b          	addiw	a3,s5,-2
   13fec:	02069693          	slli	a3,a3,0x20
   13ff0:	00813783          	ld	a5,8(sp)
   13ff4:	0206d693          	srli	a3,a3,0x20
   13ff8:	00268693          	addi	a3,a3,2 # fffffffffcc00002 <_gp+0xfffffffffcbdc6b2>
   13ffc:	00d786b3          	add	a3,a5,a3
   14000:	0100006f          	j	14010 <_dtoa_r+0x630>
   14004:	12b7f7d3          	fmul.d	fa5,fa5,fa1
   14008:	a2c7a7d3          	feq.d	a5,fa5,fa2
   1400c:	ea079ae3          	bnez	a5,13ec0 <_dtoa_r+0x4e0>
   14010:	1ad7f753          	fdiv.d	fa4,fa5,fa3
   14014:	00148493          	addi	s1,s1,1
   14018:	c20717d3          	fcvt.w.d	a5,fa4,rtz
   1401c:	d2078753          	fcvt.d.w	fa4,a5
   14020:	0307871b          	addiw	a4,a5,48
   14024:	fee48fa3          	sb	a4,-1(s1)
   14028:	7ae577c3          	fmadd.d	fa5,fa0,fa4,fa5
   1402c:	fcd49ce3          	bne	s1,a3,14004 <_dtoa_r+0x624>
   14030:	02f7f7d3          	fadd.d	fa5,fa5,fa5
   14034:	a2f69753          	flt.d	a4,fa3,fa5
   14038:	7c070863          	beqz	a4,14808 <_dtoa_r+0xe28>
   1403c:	fff6c783          	lbu	a5,-1(a3)
   14040:	00068493          	mv	s1,a3
   14044:	03900693          	li	a3,57
   14048:	0140006f          	j	1405c <_dtoa_r+0x67c>
   1404c:	00813783          	ld	a5,8(sp)
   14050:	02f70ce3          	beq	a4,a5,14888 <_dtoa_r+0xea8>
   14054:	fff74783          	lbu	a5,-1(a4)
   14058:	00070493          	mv	s1,a4
   1405c:	fff48713          	addi	a4,s1,-1
   14060:	fed786e3          	beq	a5,a3,1404c <_dtoa_r+0x66c>
   14064:	0017879b          	addiw	a5,a5,1
   14068:	00f70023          	sb	a5,0(a4)
   1406c:	e55ff06f          	j	13ec0 <_dtoa_r+0x4e0>
   14070:	01012703          	lw	a4,16(sp)
   14074:	1a070c63          	beqz	a4,1422c <_dtoa_r+0x84c>
   14078:	00100693          	li	a3,1
   1407c:	5536d863          	ble	s3,a3,145cc <_dtoa_r+0xbec>
   14080:	fffa869b          	addiw	a3,s5,-1
   14084:	72dc4c63          	blt	s8,a3,147bc <_dtoa_r+0xddc>
   14088:	40dc06bb          	subw	a3,s8,a3
   1408c:	00080493          	mv	s1,a6
   14090:	000a8793          	mv	a5,s5
   14094:	120ac2e3          	bltz	s5,149b8 <_dtoa_r+0xfd8>
   14098:	00f8083b          	addw	a6,a6,a5
   1409c:	00100593          	li	a1,1
   140a0:	00040513          	mv	a0,s0
   140a4:	04d13423          	sd	a3,72(sp)
   140a8:	05013023          	sd	a6,64(sp)
   140ac:	03013c23          	sd	a6,56(sp)
   140b0:	00fd8dbb          	addw	s11,s11,a5
   140b4:	419020ef          	jal	16ccc <__i2b>
   140b8:	04013803          	ld	a6,64(sp)
   140bc:	04813683          	ld	a3,72(sp)
   140c0:	00050a13          	mv	s4,a0
   140c4:	00048e63          	beqz	s1,140e0 <_dtoa_r+0x700>
   140c8:	01b05c63          	blez	s11,140e0 <_dtoa_r+0x700>
   140cc:	00048793          	mv	a5,s1
   140d0:	489dc463          	blt	s11,s1,14558 <_dtoa_r+0xb78>
   140d4:	40f8083b          	subw	a6,a6,a5
   140d8:	40f484bb          	subw	s1,s1,a5
   140dc:	40fd8dbb          	subw	s11,s11,a5
   140e0:	02013903          	ld	s2,32(sp)
   140e4:	07805e63          	blez	s8,14160 <_dtoa_r+0x780>
   140e8:	01012783          	lw	a5,16(sp)
   140ec:	6a078463          	beqz	a5,14794 <_dtoa_r+0xdb4>
   140f0:	04068a63          	beqz	a3,14144 <_dtoa_r+0x764>
   140f4:	00068613          	mv	a2,a3
   140f8:	000a0593          	mv	a1,s4
   140fc:	00040513          	mv	a0,s0
   14100:	05013023          	sd	a6,64(sp)
   14104:	02d13c23          	sd	a3,56(sp)
   14108:	5ed020ef          	jal	16ef4 <__pow5mult>
   1410c:	02013603          	ld	a2,32(sp)
   14110:	00050593          	mv	a1,a0
   14114:	00050a13          	mv	s4,a0
   14118:	00040513          	mv	a0,s0
   1411c:	3e5020ef          	jal	16d00 <__multiply>
   14120:	03813683          	ld	a3,56(sp)
   14124:	02013583          	ld	a1,32(sp)
   14128:	00050913          	mv	s2,a0
   1412c:	00040513          	mv	a0,s0
   14130:	40dc0c3b          	subw	s8,s8,a3
   14134:	00d020ef          	jal	16940 <_Bfree>
   14138:	04013803          	ld	a6,64(sp)
   1413c:	020c0263          	beqz	s8,14160 <_dtoa_r+0x780>
   14140:	03213023          	sd	s2,32(sp)
   14144:	02013583          	ld	a1,32(sp)
   14148:	000c0613          	mv	a2,s8
   1414c:	00040513          	mv	a0,s0
   14150:	03013c23          	sd	a6,56(sp)
   14154:	5a1020ef          	jal	16ef4 <__pow5mult>
   14158:	03813803          	ld	a6,56(sp)
   1415c:	00050913          	mv	s2,a0
   14160:	00100593          	li	a1,1
   14164:	00040513          	mv	a0,s0
   14168:	03013023          	sd	a6,32(sp)
   1416c:	361020ef          	jal	16ccc <__i2b>
   14170:	02812783          	lw	a5,40(sp)
   14174:	00050c13          	mv	s8,a0
   14178:	02013803          	ld	a6,32(sp)
   1417c:	0c078c63          	beqz	a5,14254 <_dtoa_r+0x874>
   14180:	00078613          	mv	a2,a5
   14184:	00050593          	mv	a1,a0
   14188:	00040513          	mv	a0,s0
   1418c:	569020ef          	jal	16ef4 <__pow5mult>
   14190:	00100793          	li	a5,1
   14194:	00050c13          	mv	s8,a0
   14198:	02013803          	ld	a6,32(sp)
   1419c:	3d37c263          	blt	a5,s3,14560 <_dtoa_r+0xb80>
   141a0:	00cd1793          	slli	a5,s10,0xc
   141a4:	3a079e63          	bnez	a5,14560 <_dtoa_r+0xb80>
   141a8:	420d5693          	srai	a3,s10,0x20
   141ac:	7ff007b7          	lui	a5,0x7ff00
   141b0:	00f6f7b3          	and	a5,a3,a5
   141b4:	02012023          	sw	zero,32(sp)
   141b8:	00078a63          	beqz	a5,141cc <_dtoa_r+0x7ec>
   141bc:	00100793          	li	a5,1
   141c0:	0018081b          	addiw	a6,a6,1
   141c4:	001d8d9b          	addiw	s11,s11,1
   141c8:	02f12023          	sw	a5,32(sp)
   141cc:	02812783          	lw	a5,40(sp)
   141d0:	00100513          	li	a0,1
   141d4:	08078863          	beqz	a5,14264 <_dtoa_r+0x884>
   141d8:	014c2783          	lw	a5,20(s8)
   141dc:	03013423          	sd	a6,40(sp)
   141e0:	fff7879b          	addiw	a5,a5,-1
   141e4:	00478793          	addi	a5,a5,4 # 7ff00004 <_gp+0x7fedc6b4>
   141e8:	00279793          	slli	a5,a5,0x2
   141ec:	00fc07b3          	add	a5,s8,a5
   141f0:	0087a503          	lw	a0,8(a5)
   141f4:	1ad020ef          	jal	16ba0 <__hi0bits>
   141f8:	02000793          	li	a5,32
   141fc:	40a7853b          	subw	a0,a5,a0
   14200:	02813803          	ld	a6,40(sp)
   14204:	0600006f          	j	14264 <_dtoa_r+0x884>
   14208:	d20b8753          	fcvt.d.w	fa4,s7
   1420c:	a2e7a7d3          	feq.d	a5,fa5,fa4
   14210:	0017b793          	seqz	a5,a5
   14214:	40fb8bbb          	subw	s7,s7,a5
   14218:	9f9ff06f          	j	13c10 <_dtoa_r+0x230>
   1421c:	4178083b          	subw	a6,a6,s7
   14220:	41700c3b          	negw	s8,s7
   14224:	02012423          	sw	zero,40(sp)
   14228:	a41ff06f          	j	13c68 <_dtoa_r+0x288>
   1422c:	000c0693          	mv	a3,s8
   14230:	00080493          	mv	s1,a6
   14234:	00000a13          	li	s4,0
   14238:	e8dff06f          	j	140c4 <_dtoa_r+0x6e4>
   1423c:	000d049b          	sext.w	s1,s10
   14240:	40d787bb          	subw	a5,a5,a3
   14244:	00f494bb          	sllw	s1,s1,a5
   14248:	959ff06f          	j	13ba0 <_dtoa_r+0x1c0>
   1424c:	02012823          	sw	zero,48(sp)
   14250:	9f9ff06f          	j	13c48 <_dtoa_r+0x268>
   14254:	00100793          	li	a5,1
   14258:	0737d4e3          	ble	s3,a5,14ac0 <_dtoa_r+0x10e0>
   1425c:	02012023          	sw	zero,32(sp)
   14260:	00078513          	mv	a0,a5
   14264:	01b507bb          	addw	a5,a0,s11
   14268:	01f7f793          	andi	a5,a5,31
   1426c:	1a078663          	beqz	a5,14418 <_dtoa_r+0xa38>
   14270:	02000693          	li	a3,32
   14274:	40f686bb          	subw	a3,a3,a5
   14278:	00400613          	li	a2,4
   1427c:	04d658e3          	ble	a3,a2,14acc <_dtoa_r+0x10ec>
   14280:	01c00693          	li	a3,28
   14284:	40f687bb          	subw	a5,a3,a5
   14288:	00f8083b          	addw	a6,a6,a5
   1428c:	00f484bb          	addw	s1,s1,a5
   14290:	00fd8dbb          	addw	s11,s11,a5
   14294:	01005c63          	blez	a6,142ac <_dtoa_r+0x8cc>
   14298:	00090593          	mv	a1,s2
   1429c:	00080613          	mv	a2,a6
   142a0:	00040513          	mv	a0,s0
   142a4:	589020ef          	jal	1702c <__lshift>
   142a8:	00050913          	mv	s2,a0
   142ac:	01b05c63          	blez	s11,142c4 <_dtoa_r+0x8e4>
   142b0:	000c0593          	mv	a1,s8
   142b4:	000d8613          	mv	a2,s11
   142b8:	00040513          	mv	a0,s0
   142bc:	571020ef          	jal	1702c <__lshift>
   142c0:	00050c13          	mv	s8,a0
   142c4:	03012783          	lw	a5,48(sp)
   142c8:	22079663          	bnez	a5,144f4 <_dtoa_r+0xb14>
   142cc:	3f505e63          	blez	s5,146c8 <_dtoa_r+0xce8>
   142d0:	01012783          	lw	a5,16(sp)
   142d4:	14078c63          	beqz	a5,1442c <_dtoa_r+0xa4c>
   142d8:	00905c63          	blez	s1,142f0 <_dtoa_r+0x910>
   142dc:	000a0593          	mv	a1,s4
   142e0:	00048613          	mv	a2,s1
   142e4:	00040513          	mv	a0,s0
   142e8:	545020ef          	jal	1702c <__lshift>
   142ec:	00050a13          	mv	s4,a0
   142f0:	02012783          	lw	a5,32(sp)
   142f4:	000a0d93          	mv	s11,s4
   142f8:	5a079463          	bnez	a5,148a0 <_dtoa_r+0xec0>
   142fc:	fffa849b          	addiw	s1,s5,-1
   14300:	00813783          	ld	a5,8(sp)
   14304:	02049493          	slli	s1,s1,0x20
   14308:	0204d493          	srli	s1,s1,0x20
   1430c:	00148493          	addi	s1,s1,1
   14310:	009784b3          	add	s1,a5,s1
   14314:	00078c93          	mv	s9,a5
   14318:	001d7793          	andi	a5,s10,1
   1431c:	00f13823          	sd	a5,16(sp)
   14320:	000c0593          	mv	a1,s8
   14324:	00090513          	mv	a0,s2
   14328:	cccff0ef          	jal	137f4 <quorem>
   1432c:	00050d13          	mv	s10,a0
   14330:	02a12823          	sw	a0,48(sp)
   14334:	000a0593          	mv	a1,s4
   14338:	00090513          	mv	a0,s2
   1433c:	651020ef          	jal	1718c <__mcmp>
   14340:	00050a93          	mv	s5,a0
   14344:	000d8613          	mv	a2,s11
   14348:	000c0593          	mv	a1,s8
   1434c:	00040513          	mv	a0,s0
   14350:	69d020ef          	jal	171ec <__mdiff>
   14354:	01052683          	lw	a3,16(a0)
   14358:	00050793          	mv	a5,a0
   1435c:	030d0d1b          	addiw	s10,s10,48
   14360:	00100713          	li	a4,1
   14364:	00069e63          	bnez	a3,14380 <_dtoa_r+0x9a0>
   14368:	00050593          	mv	a1,a0
   1436c:	02a13023          	sd	a0,32(sp)
   14370:	00090513          	mv	a0,s2
   14374:	619020ef          	jal	1718c <__mcmp>
   14378:	02013783          	ld	a5,32(sp)
   1437c:	00050713          	mv	a4,a0
   14380:	00078593          	mv	a1,a5
   14384:	00040513          	mv	a0,s0
   14388:	02e13023          	sd	a4,32(sp)
   1438c:	5b4020ef          	jal	16940 <_Bfree>
   14390:	02013703          	ld	a4,32(sp)
   14394:	013767b3          	or	a5,a4,s3
   14398:	00079663          	bnez	a5,143a4 <_dtoa_r+0x9c4>
   1439c:	01012783          	lw	a5,16(sp)
   143a0:	24078063          	beqz	a5,145e0 <_dtoa_r+0xc00>
   143a4:	260ac463          	bltz	s5,1460c <_dtoa_r+0xc2c>
   143a8:	013aeab3          	or	s5,s5,s3
   143ac:	000a9663          	bnez	s5,143b8 <_dtoa_r+0x9d8>
   143b0:	01012783          	lw	a5,16(sp)
   143b4:	24078c63          	beqz	a5,1460c <_dtoa_r+0xc2c>
   143b8:	5ee04263          	bgtz	a4,1499c <_dtoa_r+0xfbc>
   143bc:	001c8c93          	addi	s9,s9,1
   143c0:	ffac8fa3          	sb	s10,-1(s9)
   143c4:	5f948463          	beq	s1,s9,149ac <_dtoa_r+0xfcc>
   143c8:	00090593          	mv	a1,s2
   143cc:	00000693          	li	a3,0
   143d0:	00a00613          	li	a2,10
   143d4:	00040513          	mv	a0,s0
   143d8:	58c020ef          	jal	16964 <__multadd>
   143dc:	00050913          	mv	s2,a0
   143e0:	00000693          	li	a3,0
   143e4:	00a00613          	li	a2,10
   143e8:	000a0593          	mv	a1,s4
   143ec:	00040513          	mv	a0,s0
   143f0:	27ba0463          	beq	s4,s11,14658 <_dtoa_r+0xc78>
   143f4:	570020ef          	jal	16964 <__multadd>
   143f8:	000d8593          	mv	a1,s11
   143fc:	00050a13          	mv	s4,a0
   14400:	00000693          	li	a3,0
   14404:	00a00613          	li	a2,10
   14408:	00040513          	mv	a0,s0
   1440c:	558020ef          	jal	16964 <__multadd>
   14410:	00050d93          	mv	s11,a0
   14414:	f0dff06f          	j	14320 <_dtoa_r+0x940>
   14418:	01c00793          	li	a5,28
   1441c:	00f8083b          	addw	a6,a6,a5
   14420:	00f484bb          	addw	s1,s1,a5
   14424:	00fd8dbb          	addw	s11,s11,a5
   14428:	e6dff06f          	j	14294 <_dtoa_r+0x8b4>
   1442c:	00813483          	ld	s1,8(sp)
   14430:	00100993          	li	s3,1
   14434:	0100006f          	j	14444 <_dtoa_r+0xa64>
   14438:	52c020ef          	jal	16964 <__multadd>
   1443c:	00050913          	mv	s2,a0
   14440:	0019899b          	addiw	s3,s3,1
   14444:	000c0593          	mv	a1,s8
   14448:	00090513          	mv	a0,s2
   1444c:	ba8ff0ef          	jal	137f4 <quorem>
   14450:	03050d1b          	addiw	s10,a0,48
   14454:	00148493          	addi	s1,s1,1
   14458:	ffa48fa3          	sb	s10,-1(s1)
   1445c:	00000693          	li	a3,0
   14460:	00a00613          	li	a2,10
   14464:	00090593          	mv	a1,s2
   14468:	00040513          	mv	a0,s0
   1446c:	fd59c6e3          	blt	s3,s5,14438 <_dtoa_r+0xa58>
   14470:	00000993          	li	s3,0
   14474:	00090593          	mv	a1,s2
   14478:	00100613          	li	a2,1
   1447c:	00040513          	mv	a0,s0
   14480:	3ad020ef          	jal	1702c <__lshift>
   14484:	000c0593          	mv	a1,s8
   14488:	02a13023          	sd	a0,32(sp)
   1448c:	501020ef          	jal	1718c <__mcmp>
   14490:	34a05463          	blez	a0,147d8 <_dtoa_r+0xdf8>
   14494:	fff4c703          	lbu	a4,-1(s1)
   14498:	03900693          	li	a3,57
   1449c:	0140006f          	j	144b0 <_dtoa_r+0xad0>
   144a0:	00813703          	ld	a4,8(sp)
   144a4:	26e78a63          	beq	a5,a4,14718 <_dtoa_r+0xd38>
   144a8:	fff7c703          	lbu	a4,-1(a5)
   144ac:	00078493          	mv	s1,a5
   144b0:	fff48793          	addi	a5,s1,-1
   144b4:	fed706e3          	beq	a4,a3,144a0 <_dtoa_r+0xac0>
   144b8:	0017071b          	addiw	a4,a4,1
   144bc:	00e78023          	sb	a4,0(a5)
   144c0:	000c0593          	mv	a1,s8
   144c4:	00040513          	mv	a0,s0
   144c8:	478020ef          	jal	16940 <_Bfree>
   144cc:	9e0a0ae3          	beqz	s4,13ec0 <_dtoa_r+0x4e0>
   144d0:	00098a63          	beqz	s3,144e4 <_dtoa_r+0xb04>
   144d4:	01498863          	beq	s3,s4,144e4 <_dtoa_r+0xb04>
   144d8:	00098593          	mv	a1,s3
   144dc:	00040513          	mv	a0,s0
   144e0:	460020ef          	jal	16940 <_Bfree>
   144e4:	000a0593          	mv	a1,s4
   144e8:	00040513          	mv	a0,s0
   144ec:	454020ef          	jal	16940 <_Bfree>
   144f0:	9d1ff06f          	j	13ec0 <_dtoa_r+0x4e0>
   144f4:	000c0593          	mv	a1,s8
   144f8:	00090513          	mv	a0,s2
   144fc:	491020ef          	jal	1718c <__mcmp>
   14500:	dc0556e3          	bgez	a0,142cc <_dtoa_r+0x8ec>
   14504:	00090593          	mv	a1,s2
   14508:	00000693          	li	a3,0
   1450c:	00a00613          	li	a2,10
   14510:	00040513          	mv	a0,s0
   14514:	450020ef          	jal	16964 <__multadd>
   14518:	01012783          	lw	a5,16(sp)
   1451c:	00050913          	mv	s2,a0
   14520:	fffb8b9b          	addiw	s7,s7,-1
   14524:	56079063          	bnez	a5,14a84 <_dtoa_r+0x10a4>
   14528:	03412783          	lw	a5,52(sp)
   1452c:	00078a93          	mv	s5,a5
   14530:	eef04ee3          	bgtz	a5,1442c <_dtoa_r+0xa4c>
   14534:	00200793          	li	a5,2
   14538:	5937c063          	blt	a5,s3,14ab8 <_dtoa_r+0x10d8>
   1453c:	000c0593          	mv	a1,s8
   14540:	ab4ff0ef          	jal	137f4 <quorem>
   14544:	00813783          	ld	a5,8(sp)
   14548:	03050d1b          	addiw	s10,a0,48
   1454c:	00178493          	addi	s1,a5,1
   14550:	ffa48fa3          	sb	s10,-1(s1)
   14554:	f1dff06f          	j	14470 <_dtoa_r+0xa90>
   14558:	000d8793          	mv	a5,s11
   1455c:	b79ff06f          	j	140d4 <_dtoa_r+0x6f4>
   14560:	02012023          	sw	zero,32(sp)
   14564:	c75ff06f          	j	141d8 <_dtoa_r+0x7f8>
   14568:	00100793          	li	a5,1
   1456c:	00f12823          	sw	a5,16(sp)
   14570:	0f905c63          	blez	s9,14668 <_dtoa_r+0xc88>
   14574:	000c8513          	mv	a0,s9
   14578:	000c8493          	mv	s1,s9
   1457c:	03912a23          	sw	s9,52(sp)
   14580:	000c8a93          	mv	s5,s9
   14584:	f3cff06f          	j	13cc0 <_dtoa_r+0x2e0>
   14588:	a1504ce3          	bgtz	s5,13fa0 <_dtoa_r+0x5c0>
   1458c:	1e0a9e63          	bnez	s5,14788 <_dtoa_r+0xda8>
   14590:	000237b7          	lui	a5,0x23
   14594:	1d07b787          	fld	fa5,464(a5) # 231d0 <__wctomb+0x40>
   14598:	00000c13          	li	s8,0
   1459c:	00000a13          	li	s4,0
   145a0:	12f6f6d3          	fmul.d	fa3,fa3,fa5
   145a4:	f20d07d3          	fmv.d.x	fa5,s10
   145a8:	a2d78753          	fle.d	a4,fa5,fa3
   145ac:	14070a63          	beqz	a4,14700 <_dtoa_r+0xd20>
   145b0:	00813483          	ld	s1,8(sp)
   145b4:	fffccb93          	not	s7,s9
   145b8:	000c0593          	mv	a1,s8
   145bc:	00040513          	mv	a0,s0
   145c0:	380020ef          	jal	16940 <_Bfree>
   145c4:	8e0a0ee3          	beqz	s4,13ec0 <_dtoa_r+0x4e0>
   145c8:	f1dff06f          	j	144e4 <_dtoa_r+0xb04>
   145cc:	3e090c63          	beqz	s2,149c4 <_dtoa_r+0xfe4>
   145d0:	4337879b          	addiw	a5,a5,1075
   145d4:	000c0693          	mv	a3,s8
   145d8:	00080493          	mv	s1,a6
   145dc:	abdff06f          	j	14098 <_dtoa_r+0x6b8>
   145e0:	03900793          	li	a5,57
   145e4:	04fd0a63          	beq	s10,a5,14638 <_dtoa_r+0xc58>
   145e8:	01505663          	blez	s5,145f4 <_dtoa_r+0xc14>
   145ec:	03012783          	lw	a5,48(sp)
   145f0:	03178d1b          	addiw	s10,a5,49
   145f4:	000a0993          	mv	s3,s4
   145f8:	001c8493          	addi	s1,s9,1
   145fc:	01ac8023          	sb	s10,0(s9)
   14600:	000d8a13          	mv	s4,s11
   14604:	03213023          	sd	s2,32(sp)
   14608:	eb9ff06f          	j	144c0 <_dtoa_r+0xae0>
   1460c:	fee054e3          	blez	a4,145f4 <_dtoa_r+0xc14>
   14610:	00090593          	mv	a1,s2
   14614:	00100613          	li	a2,1
   14618:	00040513          	mv	a0,s0
   1461c:	211020ef          	jal	1702c <__lshift>
   14620:	000c0593          	mv	a1,s8
   14624:	00050913          	mv	s2,a0
   14628:	365020ef          	jal	1718c <__mcmp>
   1462c:	44a05063          	blez	a0,14a6c <_dtoa_r+0x108c>
   14630:	03900793          	li	a5,57
   14634:	fafd1ce3          	bne	s10,a5,145ec <_dtoa_r+0xc0c>
   14638:	03900793          	li	a5,57
   1463c:	000a0993          	mv	s3,s4
   14640:	001c8493          	addi	s1,s9,1
   14644:	00fc8023          	sb	a5,0(s9)
   14648:	000d8a13          	mv	s4,s11
   1464c:	03213023          	sd	s2,32(sp)
   14650:	03900713          	li	a4,57
   14654:	e45ff06f          	j	14498 <_dtoa_r+0xab8>
   14658:	30c020ef          	jal	16964 <__multadd>
   1465c:	00050a13          	mv	s4,a0
   14660:	00050d93          	mv	s11,a0
   14664:	cbdff06f          	j	14320 <_dtoa_r+0x940>
   14668:	00100493          	li	s1,1
   1466c:	02912a23          	sw	s1,52(sp)
   14670:	00048a93          	mv	s5,s1
   14674:	00048c93          	mv	s9,s1
   14678:	06042423          	sw	zero,104(s0)
   1467c:	00000593          	li	a1,0
   14680:	e74ff06f          	j	13cf4 <_dtoa_r+0x314>
   14684:	00012823          	sw	zero,16(sp)
   14688:	00200793          	li	a5,2
   1468c:	eef982e3          	beq	s3,a5,14570 <_dtoa_r+0xb90>
   14690:	06042423          	sw	zero,104(s0)
   14694:	00000593          	li	a1,0
   14698:	00040513          	mv	a0,s0
   1469c:	03013c23          	sd	a6,56(sp)
   146a0:	1f4020ef          	jal	16894 <_Balloc>
   146a4:	fff00a93          	li	s5,-1
   146a8:	00100793          	li	a5,1
   146ac:	00a13423          	sd	a0,8(sp)
   146b0:	06a43023          	sd	a0,96(s0)
   146b4:	03512a23          	sw	s5,52(sp)
   146b8:	00000c93          	li	s9,0
   146bc:	00f12823          	sw	a5,16(sp)
   146c0:	03813803          	ld	a6,56(sp)
   146c4:	8b5ff06f          	j	13f78 <_dtoa_r+0x598>
   146c8:	00200793          	li	a5,2
   146cc:	c137d2e3          	ble	s3,a5,142d0 <_dtoa_r+0x8f0>
   146d0:	300a9663          	bnez	s5,149dc <_dtoa_r+0xffc>
   146d4:	000c0593          	mv	a1,s8
   146d8:	00000693          	li	a3,0
   146dc:	00500613          	li	a2,5
   146e0:	00040513          	mv	a0,s0
   146e4:	280020ef          	jal	16964 <__multadd>
   146e8:	00050593          	mv	a1,a0
   146ec:	00050c13          	mv	s8,a0
   146f0:	00090513          	mv	a0,s2
   146f4:	299020ef          	jal	1718c <__mcmp>
   146f8:	03213023          	sd	s2,32(sp)
   146fc:	eaa05ae3          	blez	a0,145b0 <_dtoa_r+0xbd0>
   14700:	00813703          	ld	a4,8(sp)
   14704:	03100793          	li	a5,49
   14708:	001b8b9b          	addiw	s7,s7,1
   1470c:	00170493          	addi	s1,a4,1
   14710:	00f70023          	sb	a5,0(a4)
   14714:	ea5ff06f          	j	145b8 <_dtoa_r+0xbd8>
   14718:	00813703          	ld	a4,8(sp)
   1471c:	03100793          	li	a5,49
   14720:	001b8b9b          	addiw	s7,s7,1
   14724:	00f70023          	sb	a5,0(a4)
   14728:	d99ff06f          	j	144c0 <_dtoa_r+0xae0>
   1472c:	00012823          	sw	zero,16(sp)
   14730:	d78ff06f          	j	13ca8 <_dtoa_r+0x2c8>
   14734:	000237b7          	lui	a5,0x23
   14738:	d20706d3          	fcvt.d.w	fa3,a4
   1473c:	1c87b707          	fld	fa4,456(a5) # 231c8 <__wctomb+0x38>
   14740:	fcc006b7          	lui	a3,0xfcc00
   14744:	72d7f743          	fmadd.d	fa4,fa5,fa3,fa4
   14748:	e2070753          	fmv.x.d	a4,fa4
   1474c:	42075793          	srai	a5,a4,0x20
   14750:	00d787bb          	addw	a5,a5,a3
   14754:	02071713          	slli	a4,a4,0x20
   14758:	02079793          	slli	a5,a5,0x20
   1475c:	02075713          	srli	a4,a4,0x20
   14760:	00f76733          	or	a4,a4,a5
   14764:	000237b7          	lui	a5,0x23
   14768:	1d07b707          	fld	fa4,464(a5) # 231d0 <__wctomb+0x40>
   1476c:	f20706d3          	fmv.d.x	fa3,a4
   14770:	0ae7f7d3          	fsub.d	fa5,fa5,fa4
   14774:	a2f697d3          	flt.d	a5,fa3,fa5
   14778:	16079463          	bnez	a5,148e0 <_dtoa_r+0xf00>
   1477c:	22d69753          	fneg.d	fa4,fa3
   14780:	a2e797d3          	flt.d	a5,fa5,fa4
   14784:	06078e63          	beqz	a5,14800 <_dtoa_r+0xe20>
   14788:	00000c13          	li	s8,0
   1478c:	00000a13          	li	s4,0
   14790:	e21ff06f          	j	145b0 <_dtoa_r+0xbd0>
   14794:	00090593          	mv	a1,s2
   14798:	000c0613          	mv	a2,s8
   1479c:	00040513          	mv	a0,s0
   147a0:	03013023          	sd	a6,32(sp)
   147a4:	750020ef          	jal	16ef4 <__pow5mult>
   147a8:	00050913          	mv	s2,a0
   147ac:	02013803          	ld	a6,32(sp)
   147b0:	9b1ff06f          	j	14160 <_dtoa_r+0x780>
   147b4:	00813503          	ld	a0,8(sp)
   147b8:	af4ff06f          	j	13aac <_dtoa_r+0xcc>
   147bc:	02812783          	lw	a5,40(sp)
   147c0:	41868c3b          	subw	s8,a3,s8
   147c4:	018787bb          	addw	a5,a5,s8
   147c8:	02f12423          	sw	a5,40(sp)
   147cc:	00068c13          	mv	s8,a3
   147d0:	00000693          	li	a3,0
   147d4:	8b9ff06f          	j	1408c <_dtoa_r+0x6ac>
   147d8:	00051663          	bnez	a0,147e4 <_dtoa_r+0xe04>
   147dc:	001d7d13          	andi	s10,s10,1
   147e0:	ca0d1ae3          	bnez	s10,14494 <_dtoa_r+0xab4>
   147e4:	03000693          	li	a3,48
   147e8:	0080006f          	j	147f0 <_dtoa_r+0xe10>
   147ec:	00070493          	mv	s1,a4
   147f0:	fff4c783          	lbu	a5,-1(s1)
   147f4:	fff48713          	addi	a4,s1,-1
   147f8:	fed78ae3          	beq	a5,a3,147ec <_dtoa_r+0xe0c>
   147fc:	cc5ff06f          	j	144c0 <_dtoa_r+0xae0>
   14800:	03813d03          	ld	s10,56(sp)
   14804:	f74ff06f          	j	13f78 <_dtoa_r+0x598>
   14808:	a2f6a753          	feq.d	a4,fa3,fa5
   1480c:	00068493          	mv	s1,a3
   14810:	ea070863          	beqz	a4,13ec0 <_dtoa_r+0x4e0>
   14814:	0017f793          	andi	a5,a5,1
   14818:	ea078463          	beqz	a5,13ec0 <_dtoa_r+0x4e0>
   1481c:	fff6c783          	lbu	a5,-1(a3) # fffffffffcbfffff <_gp+0xfffffffffcbdc6af>
   14820:	825ff06f          	j	14044 <_dtoa_r+0x664>
   14824:	417007bb          	negw	a5,s7
   14828:	03813787          	fld	fa5,56(sp)
   1482c:	00200713          	li	a4,2
   14830:	d6078063          	beqz	a5,13d90 <_dtoa_r+0x3b0>
   14834:	00f7f693          	andi	a3,a5,15
   14838:	00020637          	lui	a2,0x20
   1483c:	00369693          	slli	a3,a3,0x3
   14840:	2f060613          	addi	a2,a2,752 # 202f0 <__mprec_tens>
   14844:	00c686b3          	add	a3,a3,a2
   14848:	0006b787          	fld	fa5,0(a3)
   1484c:	03813707          	fld	fa4,56(sp)
   14850:	4047d79b          	sraiw	a5,a5,0x4
   14854:	12f777d3          	fmul.d	fa5,fa4,fa5
   14858:	d2078c63          	beqz	a5,13d90 <_dtoa_r+0x3b0>
   1485c:	000206b7          	lui	a3,0x20
   14860:	3e068693          	addi	a3,a3,992 # 203e0 <__mprec_bigtens>
   14864:	0017f613          	andi	a2,a5,1
   14868:	4017d79b          	sraiw	a5,a5,0x1
   1486c:	00060863          	beqz	a2,1487c <_dtoa_r+0xe9c>
   14870:	0006b707          	fld	fa4,0(a3)
   14874:	0017071b          	addiw	a4,a4,1
   14878:	12e7f7d3          	fmul.d	fa5,fa5,fa4
   1487c:	00868693          	addi	a3,a3,8
   14880:	fe0792e3          	bnez	a5,14864 <_dtoa_r+0xe84>
   14884:	d0cff06f          	j	13d90 <_dtoa_r+0x3b0>
   14888:	00813683          	ld	a3,8(sp)
   1488c:	03000793          	li	a5,48
   14890:	001b8b9b          	addiw	s7,s7,1
   14894:	00f68023          	sb	a5,0(a3)
   14898:	fff4c783          	lbu	a5,-1(s1)
   1489c:	fc8ff06f          	j	14064 <_dtoa_r+0x684>
   148a0:	008a2583          	lw	a1,8(s4)
   148a4:	00040513          	mv	a0,s0
   148a8:	7ed010ef          	jal	16894 <_Balloc>
   148ac:	014a2603          	lw	a2,20(s4)
   148b0:	00050493          	mv	s1,a0
   148b4:	010a0593          	addi	a1,s4,16
   148b8:	00260613          	addi	a2,a2,2
   148bc:	00261613          	slli	a2,a2,0x2
   148c0:	01050513          	addi	a0,a0,16
   148c4:	5cd010ef          	jal	16690 <memcpy>
   148c8:	00100613          	li	a2,1
   148cc:	00048593          	mv	a1,s1
   148d0:	00040513          	mv	a0,s0
   148d4:	758020ef          	jal	1702c <__lshift>
   148d8:	00050d93          	mv	s11,a0
   148dc:	a21ff06f          	j	142fc <_dtoa_r+0x91c>
   148e0:	00000c13          	li	s8,0
   148e4:	00000a13          	li	s4,0
   148e8:	e19ff06f          	j	14700 <_dtoa_r+0xd20>
   148ec:	fff6079b          	addiw	a5,a2,-1
   148f0:	00020537          	lui	a0,0x20
   148f4:	c20795d3          	fcvt.w.d	a1,fa5,rtz
   148f8:	00379793          	slli	a5,a5,0x3
   148fc:	2f050513          	addi	a0,a0,752 # 202f0 <__mprec_tens>
   14900:	00a787b3          	add	a5,a5,a0
   14904:	0007b707          	fld	fa4,0(a5)
   14908:	00813783          	ld	a5,8(sp)
   1490c:	d20586d3          	fcvt.d.w	fa3,a1
   14910:	f2070653          	fmv.d.x	fa2,a4
   14914:	0305859b          	addiw	a1,a1,48
   14918:	00b78023          	sb	a1,0(a5)
   1491c:	00178493          	addi	s1,a5,1
   14920:	00100793          	li	a5,1
   14924:	12c77653          	fmul.d	fa2,fa4,fa2
   14928:	0ad7f7d3          	fsub.d	fa5,fa5,fa3
   1492c:	04f60863          	beq	a2,a5,1497c <_dtoa_r+0xf9c>
   14930:	ffe6061b          	addiw	a2,a2,-2
   14934:	000237b7          	lui	a5,0x23
   14938:	02061593          	slli	a1,a2,0x20
   1493c:	1c07b687          	fld	fa3,448(a5) # 231c0 <__wctomb+0x30>
   14940:	00813783          	ld	a5,8(sp)
   14944:	0205d593          	srli	a1,a1,0x20
   14948:	00258513          	addi	a0,a1,2
   1494c:	00a78533          	add	a0,a5,a0
   14950:	00048613          	mv	a2,s1
   14954:	12d7f7d3          	fmul.d	fa5,fa5,fa3
   14958:	00160613          	addi	a2,a2,1
   1495c:	c20797d3          	fcvt.w.d	a5,fa5,rtz
   14960:	d2078753          	fcvt.d.w	fa4,a5
   14964:	0307879b          	addiw	a5,a5,48
   14968:	fef60fa3          	sb	a5,-1(a2)
   1496c:	0ae7f7d3          	fsub.d	fa5,fa5,fa4
   14970:	fea612e3          	bne	a2,a0,14954 <_dtoa_r+0xf74>
   14974:	00158593          	addi	a1,a1,1
   14978:	00b484b3          	add	s1,s1,a1
   1497c:	000237b7          	lui	a5,0x23
   14980:	1d87b707          	fld	fa4,472(a5) # 231d8 <__wctomb+0x48>
   14984:	02e676d3          	fadd.d	fa3,fa2,fa4
   14988:	a2f697d3          	flt.d	a5,fa3,fa5
   1498c:	0a078663          	beqz	a5,14a38 <_dtoa_r+0x1058>
   14990:	fff4c783          	lbu	a5,-1(s1)
   14994:	00068b93          	mv	s7,a3
   14998:	eacff06f          	j	14044 <_dtoa_r+0x664>
   1499c:	03900793          	li	a5,57
   149a0:	c8fd0ce3          	beq	s10,a5,14638 <_dtoa_r+0xc58>
   149a4:	001d0d1b          	addiw	s10,s10,1
   149a8:	c4dff06f          	j	145f4 <_dtoa_r+0xc14>
   149ac:	000a0993          	mv	s3,s4
   149b0:	000d8a13          	mv	s4,s11
   149b4:	ac1ff06f          	j	14474 <_dtoa_r+0xa94>
   149b8:	415804bb          	subw	s1,a6,s5
   149bc:	00000793          	li	a5,0
   149c0:	ed8ff06f          	j	14098 <_dtoa_r+0x6b8>
   149c4:	05812603          	lw	a2,88(sp)
   149c8:	03600793          	li	a5,54
   149cc:	000c0693          	mv	a3,s8
   149d0:	40c787bb          	subw	a5,a5,a2
   149d4:	00080493          	mv	s1,a6
   149d8:	ec0ff06f          	j	14098 <_dtoa_r+0x6b8>
   149dc:	03213023          	sd	s2,32(sp)
   149e0:	bd1ff06f          	j	145b0 <_dtoa_r+0xbd0>
   149e4:	d40a88e3          	beqz	s5,14734 <_dtoa_r+0xd54>
   149e8:	03412603          	lw	a2,52(sp)
   149ec:	e0c05ae3          	blez	a2,14800 <_dtoa_r+0xe20>
   149f0:	000237b7          	lui	a5,0x23
   149f4:	1c07b707          	fld	fa4,448(a5) # 231c0 <__wctomb+0x30>
   149f8:	0017071b          	addiw	a4,a4,1
   149fc:	000237b7          	lui	a5,0x23
   14a00:	12e7f7d3          	fmul.d	fa5,fa5,fa4
   14a04:	d20706d3          	fcvt.d.w	fa3,a4
   14a08:	1c87b707          	fld	fa4,456(a5) # 231c8 <__wctomb+0x38>
   14a0c:	fcc005b7          	lui	a1,0xfcc00
   14a10:	fffb869b          	addiw	a3,s7,-1
   14a14:	72d7f743          	fmadd.d	fa4,fa5,fa3,fa4
   14a18:	e2070753          	fmv.x.d	a4,fa4
   14a1c:	42075793          	srai	a5,a4,0x20
   14a20:	00b787bb          	addw	a5,a5,a1
   14a24:	02071713          	slli	a4,a4,0x20
   14a28:	02079793          	slli	a5,a5,0x20
   14a2c:	02075713          	srli	a4,a4,0x20
   14a30:	00f76733          	or	a4,a4,a5
   14a34:	bb0ff06f          	j	13de4 <_dtoa_r+0x404>
   14a38:	0ac77753          	fsub.d	fa4,fa4,fa2
   14a3c:	03000613          	li	a2,48
   14a40:	a2e797d3          	flt.d	a5,fa5,fa4
   14a44:	00079663          	bnez	a5,14a50 <_dtoa_r+0x1070>
   14a48:	db9ff06f          	j	14800 <_dtoa_r+0xe20>
   14a4c:	00070493          	mv	s1,a4
   14a50:	fff4c783          	lbu	a5,-1(s1)
   14a54:	fff48713          	addi	a4,s1,-1
   14a58:	fec78ae3          	beq	a5,a2,14a4c <_dtoa_r+0x106c>
   14a5c:	00068b93          	mv	s7,a3
   14a60:	c60ff06f          	j	13ec0 <_dtoa_r+0x4e0>
   14a64:	00068b93          	mv	s7,a3
   14a68:	ddcff06f          	j	14044 <_dtoa_r+0x664>
   14a6c:	b80514e3          	bnez	a0,145f4 <_dtoa_r+0xc14>
   14a70:	001d7793          	andi	a5,s10,1
   14a74:	b80780e3          	beqz	a5,145f4 <_dtoa_r+0xc14>
   14a78:	bb9ff06f          	j	14630 <_dtoa_r+0xc50>
   14a7c:	00048693          	mv	a3,s1
   14a80:	db0ff06f          	j	14030 <_dtoa_r+0x650>
   14a84:	000a0593          	mv	a1,s4
   14a88:	00000693          	li	a3,0
   14a8c:	00a00613          	li	a2,10
   14a90:	00040513          	mv	a0,s0
   14a94:	6d1010ef          	jal	16964 <__multadd>
   14a98:	03412783          	lw	a5,52(sp)
   14a9c:	00050a13          	mv	s4,a0
   14aa0:	00078a93          	mv	s5,a5
   14aa4:	82f04ae3          	bgtz	a5,142d8 <_dtoa_r+0x8f8>
   14aa8:	00200793          	li	a5,2
   14aac:	0137c663          	blt	a5,s3,14ab8 <_dtoa_r+0x10d8>
   14ab0:	03412a83          	lw	s5,52(sp)
   14ab4:	825ff06f          	j	142d8 <_dtoa_r+0x8f8>
   14ab8:	03412a83          	lw	s5,52(sp)
   14abc:	c15ff06f          	j	146d0 <_dtoa_r+0xcf0>
   14ac0:	00cd1713          	slli	a4,s10,0xc
   14ac4:	ee070263          	beqz	a4,141a8 <_dtoa_r+0x7c8>
   14ac8:	f94ff06f          	j	1425c <_dtoa_r+0x87c>
   14acc:	fcc68463          	beq	a3,a2,14294 <_dtoa_r+0x8b4>
   14ad0:	03c00693          	li	a3,60
   14ad4:	40f687bb          	subw	a5,a3,a5
   14ad8:	945ff06f          	j	1441c <_dtoa_r+0xa3c>

0000000000014adc <__sflush_r>:
   14adc:	01059683          	lh	a3,16(a1) # fffffffffcc00010 <_gp+0xfffffffffcbdc6c0>
   14ae0:	fd010113          	addi	sp,sp,-48
   14ae4:	00913c23          	sd	s1,24(sp)
   14ae8:	03069713          	slli	a4,a3,0x30
   14aec:	03075713          	srli	a4,a4,0x30
   14af0:	01313423          	sd	s3,8(sp)
   14af4:	02113423          	sd	ra,40(sp)
   14af8:	02813023          	sd	s0,32(sp)
   14afc:	01213823          	sd	s2,16(sp)
   14b00:	00877793          	andi	a5,a4,8
   14b04:	00058493          	mv	s1,a1
   14b08:	00050993          	mv	s3,a0
   14b0c:	0e079863          	bnez	a5,14bfc <__sflush_r+0x120>
   14b10:	000017b7          	lui	a5,0x1
   14b14:	8007879b          	addiw	a5,a5,-2048
   14b18:	00f6e7b3          	or	a5,a3,a5
   14b1c:	0107979b          	slliw	a5,a5,0x10
   14b20:	0085a703          	lw	a4,8(a1)
   14b24:	4107d79b          	sraiw	a5,a5,0x10
   14b28:	00f59823          	sh	a5,16(a1)
   14b2c:	1ae05863          	blez	a4,14cdc <__sflush_r+0x200>
   14b30:	0484b703          	ld	a4,72(s1)
   14b34:	0a070463          	beqz	a4,14bdc <__sflush_r+0x100>
   14b38:	03079793          	slli	a5,a5,0x30
   14b3c:	0307d793          	srli	a5,a5,0x30
   14b40:	0009a403          	lw	s0,0(s3)
   14b44:	03379693          	slli	a3,a5,0x33
   14b48:	0009a023          	sw	zero,0(s3)
   14b4c:	1806de63          	bgez	a3,14ce8 <__sflush_r+0x20c>
   14b50:	0904b603          	ld	a2,144(s1)
   14b54:	0047f793          	andi	a5,a5,4
   14b58:	00078e63          	beqz	a5,14b74 <__sflush_r+0x98>
   14b5c:	0084a683          	lw	a3,8(s1)
   14b60:	0584b783          	ld	a5,88(s1)
   14b64:	40d60633          	sub	a2,a2,a3
   14b68:	00078663          	beqz	a5,14b74 <__sflush_r+0x98>
   14b6c:	0704a783          	lw	a5,112(s1)
   14b70:	40f60633          	sub	a2,a2,a5
   14b74:	0304b583          	ld	a1,48(s1)
   14b78:	00000693          	li	a3,0
   14b7c:	00098513          	mv	a0,s3
   14b80:	000700e7          	jalr	a4
   14b84:	fff00793          	li	a5,-1
   14b88:	0ef50c63          	beq	a0,a5,14c80 <__sflush_r+0x1a4>
   14b8c:	0104d683          	lhu	a3,16(s1)
   14b90:	fffff7b7          	lui	a5,0xfffff
   14b94:	7ff7879b          	addiw	a5,a5,2047
   14b98:	0184b703          	ld	a4,24(s1)
   14b9c:	00f6f7b3          	and	a5,a3,a5
   14ba0:	0107979b          	slliw	a5,a5,0x10
   14ba4:	4107d79b          	sraiw	a5,a5,0x10
   14ba8:	00e4b023          	sd	a4,0(s1)
   14bac:	00f49823          	sh	a5,16(s1)
   14bb0:	0004a423          	sw	zero,8(s1)
   14bb4:	03379713          	slli	a4,a5,0x33
   14bb8:	10074e63          	bltz	a4,14cd4 <__sflush_r+0x1f8>
   14bbc:	0584b583          	ld	a1,88(s1)
   14bc0:	0089a023          	sw	s0,0(s3)
   14bc4:	00058c63          	beqz	a1,14bdc <__sflush_r+0x100>
   14bc8:	07448793          	addi	a5,s1,116
   14bcc:	00f58663          	beq	a1,a5,14bd8 <__sflush_r+0xfc>
   14bd0:	00098513          	mv	a0,s3
   14bd4:	0e5000ef          	jal	154b8 <_free_r>
   14bd8:	0404bc23          	sd	zero,88(s1)
   14bdc:	00000513          	li	a0,0
   14be0:	02813083          	ld	ra,40(sp)
   14be4:	02013403          	ld	s0,32(sp)
   14be8:	01813483          	ld	s1,24(sp)
   14bec:	01013903          	ld	s2,16(sp)
   14bf0:	00813983          	ld	s3,8(sp)
   14bf4:	03010113          	addi	sp,sp,48
   14bf8:	00008067          	ret
   14bfc:	0185b903          	ld	s2,24(a1)
   14c00:	fc090ee3          	beqz	s2,14bdc <__sflush_r+0x100>
   14c04:	0005b403          	ld	s0,0(a1)
   14c08:	00377713          	andi	a4,a4,3
   14c0c:	0125b023          	sd	s2,0(a1)
   14c10:	4124043b          	subw	s0,s0,s2
   14c14:	00000793          	li	a5,0
   14c18:	00071463          	bnez	a4,14c20 <__sflush_r+0x144>
   14c1c:	0205a783          	lw	a5,32(a1)
   14c20:	00f4a623          	sw	a5,12(s1)
   14c24:	00804863          	bgtz	s0,14c34 <__sflush_r+0x158>
   14c28:	fb5ff06f          	j	14bdc <__sflush_r+0x100>
   14c2c:	00a90933          	add	s2,s2,a0
   14c30:	fa8056e3          	blez	s0,14bdc <__sflush_r+0x100>
   14c34:	0404b783          	ld	a5,64(s1)
   14c38:	0304b583          	ld	a1,48(s1)
   14c3c:	00040693          	mv	a3,s0
   14c40:	00090613          	mv	a2,s2
   14c44:	00098513          	mv	a0,s3
   14c48:	000780e7          	jalr	a5
   14c4c:	40a4043b          	subw	s0,s0,a0
   14c50:	fca04ee3          	bgtz	a0,14c2c <__sflush_r+0x150>
   14c54:	0104d783          	lhu	a5,16(s1)
   14c58:	02813083          	ld	ra,40(sp)
   14c5c:	fff00513          	li	a0,-1
   14c60:	0407e793          	ori	a5,a5,64
   14c64:	00f49823          	sh	a5,16(s1)
   14c68:	02013403          	ld	s0,32(sp)
   14c6c:	01813483          	ld	s1,24(sp)
   14c70:	01013903          	ld	s2,16(sp)
   14c74:	00813983          	ld	s3,8(sp)
   14c78:	03010113          	addi	sp,sp,48
   14c7c:	00008067          	ret
   14c80:	0009a703          	lw	a4,0(s3)
   14c84:	01d00793          	li	a5,29
   14c88:	fce7e6e3          	bltu	a5,a4,14c54 <__sflush_r+0x178>
   14c8c:	204007b7          	lui	a5,0x20400
   14c90:	00178793          	addi	a5,a5,1 # 20400001 <_gp+0x203dc6b1>
   14c94:	00e7d7b3          	srl	a5,a5,a4
   14c98:	0017f793          	andi	a5,a5,1
   14c9c:	fa078ce3          	beqz	a5,14c54 <__sflush_r+0x178>
   14ca0:	0104d603          	lhu	a2,16(s1)
   14ca4:	fffff7b7          	lui	a5,0xfffff
   14ca8:	7ff7879b          	addiw	a5,a5,2047
   14cac:	0184b683          	ld	a3,24(s1)
   14cb0:	00f677b3          	and	a5,a2,a5
   14cb4:	0107979b          	slliw	a5,a5,0x10
   14cb8:	4107d79b          	sraiw	a5,a5,0x10
   14cbc:	00d4b023          	sd	a3,0(s1)
   14cc0:	00f49823          	sh	a5,16(s1)
   14cc4:	0004a423          	sw	zero,8(s1)
   14cc8:	03379693          	slli	a3,a5,0x33
   14ccc:	ee06d8e3          	bgez	a3,14bbc <__sflush_r+0xe0>
   14cd0:	ee0716e3          	bnez	a4,14bbc <__sflush_r+0xe0>
   14cd4:	08a4b823          	sd	a0,144(s1)
   14cd8:	ee5ff06f          	j	14bbc <__sflush_r+0xe0>
   14cdc:	0705a703          	lw	a4,112(a1)
   14ce0:	e4e048e3          	bgtz	a4,14b30 <__sflush_r+0x54>
   14ce4:	ef9ff06f          	j	14bdc <__sflush_r+0x100>
   14ce8:	0304b583          	ld	a1,48(s1)
   14cec:	00000613          	li	a2,0
   14cf0:	00100693          	li	a3,1
   14cf4:	00098513          	mv	a0,s3
   14cf8:	000700e7          	jalr	a4
   14cfc:	fff00793          	li	a5,-1
   14d00:	00050613          	mv	a2,a0
   14d04:	00f50863          	beq	a0,a5,14d14 <__sflush_r+0x238>
   14d08:	0104d783          	lhu	a5,16(s1)
   14d0c:	0484b703          	ld	a4,72(s1)
   14d10:	e45ff06f          	j	14b54 <__sflush_r+0x78>
   14d14:	0009a783          	lw	a5,0(s3)
   14d18:	fe0788e3          	beqz	a5,14d08 <__sflush_r+0x22c>
   14d1c:	01d00713          	li	a4,29
   14d20:	00e78663          	beq	a5,a4,14d2c <__sflush_r+0x250>
   14d24:	01600713          	li	a4,22
   14d28:	00e79863          	bne	a5,a4,14d38 <__sflush_r+0x25c>
   14d2c:	0089a023          	sw	s0,0(s3)
   14d30:	00000513          	li	a0,0
   14d34:	eadff06f          	j	14be0 <__sflush_r+0x104>
   14d38:	0104d783          	lhu	a5,16(s1)
   14d3c:	0407e793          	ori	a5,a5,64
   14d40:	00f49823          	sh	a5,16(s1)
   14d44:	e9dff06f          	j	14be0 <__sflush_r+0x104>

0000000000014d48 <_fflush_r>:
   14d48:	fe010113          	addi	sp,sp,-32
   14d4c:	00813823          	sd	s0,16(sp)
   14d50:	00113c23          	sd	ra,24(sp)
   14d54:	00050413          	mv	s0,a0
   14d58:	00050663          	beqz	a0,14d64 <_fflush_r+0x1c>
   14d5c:	05052783          	lw	a5,80(a0)
   14d60:	02078a63          	beqz	a5,14d94 <_fflush_r+0x4c>
   14d64:	01059783          	lh	a5,16(a1)
   14d68:	00079c63          	bnez	a5,14d80 <_fflush_r+0x38>
   14d6c:	01813083          	ld	ra,24(sp)
   14d70:	00000513          	li	a0,0
   14d74:	01013403          	ld	s0,16(sp)
   14d78:	02010113          	addi	sp,sp,32
   14d7c:	00008067          	ret
   14d80:	00040513          	mv	a0,s0
   14d84:	01813083          	ld	ra,24(sp)
   14d88:	01013403          	ld	s0,16(sp)
   14d8c:	02010113          	addi	sp,sp,32
   14d90:	d4dff06f          	j	14adc <__sflush_r>
   14d94:	00b13423          	sd	a1,8(sp)
   14d98:	35c000ef          	jal	150f4 <__sinit>
   14d9c:	00813583          	ld	a1,8(sp)
   14da0:	fc5ff06f          	j	14d64 <_fflush_r+0x1c>

0000000000014da4 <fflush>:
   14da4:	00050593          	mv	a1,a0
   14da8:	00050663          	beqz	a0,14db4 <fflush+0x10>
   14dac:	8101b503          	ld	a0,-2032(gp) # 23160 <_impure_ptr>
   14db0:	f99ff06f          	j	14d48 <_fflush_r>
   14db4:	8081b503          	ld	a0,-2040(gp) # 23158 <_global_impure_ptr>
   14db8:	000155b7          	lui	a1,0x15
   14dbc:	d4858593          	addi	a1,a1,-696 # 14d48 <_fflush_r>
   14dc0:	2b90006f          	j	15878 <_fwalk_reent>

0000000000014dc4 <__fp_unlock>:
   14dc4:	00000513          	li	a0,0
   14dc8:	00008067          	ret

0000000000014dcc <_cleanup_r>:
   14dcc:	0001d5b7          	lui	a1,0x1d
   14dd0:	9b458593          	addi	a1,a1,-1612 # 1c9b4 <_fclose_r>
   14dd4:	2a50006f          	j	15878 <_fwalk_reent>

0000000000014dd8 <__sinit.part.1>:
   14dd8:	fc010113          	addi	sp,sp,-64
   14ddc:	000157b7          	lui	a5,0x15
   14de0:	02113c23          	sd	ra,56(sp)
   14de4:	02813823          	sd	s0,48(sp)
   14de8:	02913423          	sd	s1,40(sp)
   14dec:	00853403          	ld	s0,8(a0)
   14df0:	03213023          	sd	s2,32(sp)
   14df4:	01313c23          	sd	s3,24(sp)
   14df8:	01413823          	sd	s4,16(sp)
   14dfc:	01513423          	sd	s5,8(sp)
   14e00:	01613023          	sd	s6,0(sp)
   14e04:	dcc78793          	addi	a5,a5,-564 # 14dcc <_cleanup_r>
   14e08:	04f53c23          	sd	a5,88(a0)
   14e0c:	53850713          	addi	a4,a0,1336
   14e10:	00300793          	li	a5,3
   14e14:	52e53823          	sd	a4,1328(a0)
   14e18:	52f52423          	sw	a5,1320(a0)
   14e1c:	52053023          	sd	zero,1312(a0)
   14e20:	00400793          	li	a5,4
   14e24:	00050913          	mv	s2,a0
   14e28:	00f41823          	sh	a5,16(s0)
   14e2c:	00800613          	li	a2,8
   14e30:	00000593          	li	a1,0
   14e34:	00043023          	sd	zero,0(s0)
   14e38:	00042423          	sw	zero,8(s0)
   14e3c:	00042623          	sw	zero,12(s0)
   14e40:	0a042623          	sw	zero,172(s0)
   14e44:	00041923          	sh	zero,18(s0)
   14e48:	00043c23          	sd	zero,24(s0)
   14e4c:	02042023          	sw	zero,32(s0)
   14e50:	02042423          	sw	zero,40(s0)
   14e54:	0a440513          	addi	a0,s0,164
   14e58:	159010ef          	jal	167b0 <memset>
   14e5c:	00018b37          	lui	s6,0x18
   14e60:	01093483          	ld	s1,16(s2)
   14e64:	00018ab7          	lui	s5,0x18
   14e68:	00018a37          	lui	s4,0x18
   14e6c:	000189b7          	lui	s3,0x18
   14e70:	d84b0b13          	addi	s6,s6,-636 # 17d84 <__sread>
   14e74:	df0a8a93          	addi	s5,s5,-528 # 17df0 <__swrite>
   14e78:	e60a0a13          	addi	s4,s4,-416 # 17e60 <__sseek>
   14e7c:	ecc98993          	addi	s3,s3,-308 # 17ecc <__sclose>
   14e80:	03643c23          	sd	s6,56(s0)
   14e84:	05543023          	sd	s5,64(s0)
   14e88:	05443423          	sd	s4,72(s0)
   14e8c:	05343823          	sd	s3,80(s0)
   14e90:	02843823          	sd	s0,48(s0)
   14e94:	00900793          	li	a5,9
   14e98:	00f49823          	sh	a5,16(s1)
   14e9c:	00100793          	li	a5,1
   14ea0:	00f49923          	sh	a5,18(s1)
   14ea4:	00800613          	li	a2,8
   14ea8:	00000593          	li	a1,0
   14eac:	0004b023          	sd	zero,0(s1)
   14eb0:	0004a423          	sw	zero,8(s1)
   14eb4:	0004a623          	sw	zero,12(s1)
   14eb8:	0a04a623          	sw	zero,172(s1)
   14ebc:	0004bc23          	sd	zero,24(s1)
   14ec0:	0204a023          	sw	zero,32(s1)
   14ec4:	0204a423          	sw	zero,40(s1)
   14ec8:	0a448513          	addi	a0,s1,164
   14ecc:	0e5010ef          	jal	167b0 <memset>
   14ed0:	01893403          	ld	s0,24(s2)
   14ed4:	01200793          	li	a5,18
   14ed8:	0364bc23          	sd	s6,56(s1)
   14edc:	0554b023          	sd	s5,64(s1)
   14ee0:	0544b423          	sd	s4,72(s1)
   14ee4:	0534b823          	sd	s3,80(s1)
   14ee8:	0294b823          	sd	s1,48(s1)
   14eec:	00f41823          	sh	a5,16(s0)
   14ef0:	00200793          	li	a5,2
   14ef4:	00f41923          	sh	a5,18(s0)
   14ef8:	00043023          	sd	zero,0(s0)
   14efc:	00042423          	sw	zero,8(s0)
   14f00:	00042623          	sw	zero,12(s0)
   14f04:	0a042623          	sw	zero,172(s0)
   14f08:	00043c23          	sd	zero,24(s0)
   14f0c:	02042023          	sw	zero,32(s0)
   14f10:	02042423          	sw	zero,40(s0)
   14f14:	0a440513          	addi	a0,s0,164
   14f18:	00800613          	li	a2,8
   14f1c:	00000593          	li	a1,0
   14f20:	091010ef          	jal	167b0 <memset>
   14f24:	03813083          	ld	ra,56(sp)
   14f28:	03643c23          	sd	s6,56(s0)
   14f2c:	05543023          	sd	s5,64(s0)
   14f30:	05443423          	sd	s4,72(s0)
   14f34:	05343823          	sd	s3,80(s0)
   14f38:	02843823          	sd	s0,48(s0)
   14f3c:	00100793          	li	a5,1
   14f40:	04f92823          	sw	a5,80(s2)
   14f44:	03013403          	ld	s0,48(sp)
   14f48:	02813483          	ld	s1,40(sp)
   14f4c:	02013903          	ld	s2,32(sp)
   14f50:	01813983          	ld	s3,24(sp)
   14f54:	01013a03          	ld	s4,16(sp)
   14f58:	00813a83          	ld	s5,8(sp)
   14f5c:	00013b03          	ld	s6,0(sp)
   14f60:	04010113          	addi	sp,sp,64
   14f64:	00008067          	ret

0000000000014f68 <__fp_lock>:
   14f68:	00000513          	li	a0,0
   14f6c:	00008067          	ret

0000000000014f70 <__sfmoreglue>:
   14f70:	fe010113          	addi	sp,sp,-32
   14f74:	fff5879b          	addiw	a5,a1,-1
   14f78:	00913423          	sd	s1,8(sp)
   14f7c:	0b000493          	li	s1,176
   14f80:	029784b3          	mul	s1,a5,s1
   14f84:	01213023          	sd	s2,0(sp)
   14f88:	00058913          	mv	s2,a1
   14f8c:	00813823          	sd	s0,16(sp)
   14f90:	00113c23          	sd	ra,24(sp)
   14f94:	0c848593          	addi	a1,s1,200
   14f98:	445000ef          	jal	15bdc <_malloc_r>
   14f9c:	00050413          	mv	s0,a0
   14fa0:	02050063          	beqz	a0,14fc0 <__sfmoreglue+0x50>
   14fa4:	01850513          	addi	a0,a0,24
   14fa8:	00043023          	sd	zero,0(s0)
   14fac:	01242423          	sw	s2,8(s0)
   14fb0:	00a43823          	sd	a0,16(s0)
   14fb4:	0b048613          	addi	a2,s1,176
   14fb8:	00000593          	li	a1,0
   14fbc:	7f4010ef          	jal	167b0 <memset>
   14fc0:	01813083          	ld	ra,24(sp)
   14fc4:	00040513          	mv	a0,s0
   14fc8:	00813483          	ld	s1,8(sp)
   14fcc:	01013403          	ld	s0,16(sp)
   14fd0:	00013903          	ld	s2,0(sp)
   14fd4:	02010113          	addi	sp,sp,32
   14fd8:	00008067          	ret

0000000000014fdc <__sfp>:
   14fdc:	fd010113          	addi	sp,sp,-48
   14fe0:	01213823          	sd	s2,16(sp)
   14fe4:	8081b903          	ld	s2,-2040(gp) # 23158 <_global_impure_ptr>
   14fe8:	01313423          	sd	s3,8(sp)
   14fec:	02113423          	sd	ra,40(sp)
   14ff0:	05092783          	lw	a5,80(s2)
   14ff4:	02813023          	sd	s0,32(sp)
   14ff8:	00913c23          	sd	s1,24(sp)
   14ffc:	00050993          	mv	s3,a0
   15000:	00079663          	bnez	a5,1500c <__sfp+0x30>
   15004:	00090513          	mv	a0,s2
   15008:	dd1ff0ef          	jal	14dd8 <__sinit.part.1>
   1500c:	52090913          	addi	s2,s2,1312
   15010:	fff00493          	li	s1,-1
   15014:	00892783          	lw	a5,8(s2)
   15018:	01093403          	ld	s0,16(s2)
   1501c:	fff7879b          	addiw	a5,a5,-1
   15020:	0007da63          	bgez	a5,15034 <__sfp+0x58>
   15024:	0840006f          	j	150a8 <__sfp+0xcc>
   15028:	fff7879b          	addiw	a5,a5,-1
   1502c:	0b040413          	addi	s0,s0,176
   15030:	06978c63          	beq	a5,s1,150a8 <__sfp+0xcc>
   15034:	01041703          	lh	a4,16(s0)
   15038:	fe0718e3          	bnez	a4,15028 <__sfp+0x4c>
   1503c:	fff00793          	li	a5,-1
   15040:	00f41923          	sh	a5,18(s0)
   15044:	00100793          	li	a5,1
   15048:	00f41823          	sh	a5,16(s0)
   1504c:	0a042623          	sw	zero,172(s0)
   15050:	00043023          	sd	zero,0(s0)
   15054:	00042623          	sw	zero,12(s0)
   15058:	00042423          	sw	zero,8(s0)
   1505c:	00043c23          	sd	zero,24(s0)
   15060:	02042023          	sw	zero,32(s0)
   15064:	02042423          	sw	zero,40(s0)
   15068:	00800613          	li	a2,8
   1506c:	00000593          	li	a1,0
   15070:	0a440513          	addi	a0,s0,164
   15074:	73c010ef          	jal	167b0 <memset>
   15078:	00040513          	mv	a0,s0
   1507c:	04043c23          	sd	zero,88(s0)
   15080:	06042023          	sw	zero,96(s0)
   15084:	06043c23          	sd	zero,120(s0)
   15088:	08042023          	sw	zero,128(s0)
   1508c:	02813083          	ld	ra,40(sp)
   15090:	02013403          	ld	s0,32(sp)
   15094:	01813483          	ld	s1,24(sp)
   15098:	01013903          	ld	s2,16(sp)
   1509c:	00813983          	ld	s3,8(sp)
   150a0:	03010113          	addi	sp,sp,48
   150a4:	00008067          	ret
   150a8:	00093783          	ld	a5,0(s2)
   150ac:	00078663          	beqz	a5,150b8 <__sfp+0xdc>
   150b0:	00078913          	mv	s2,a5
   150b4:	f61ff06f          	j	15014 <__sfp+0x38>
   150b8:	00400593          	li	a1,4
   150bc:	00098513          	mv	a0,s3
   150c0:	eb1ff0ef          	jal	14f70 <__sfmoreglue>
   150c4:	00a93023          	sd	a0,0(s2)
   150c8:	00050663          	beqz	a0,150d4 <__sfp+0xf8>
   150cc:	00050913          	mv	s2,a0
   150d0:	f45ff06f          	j	15014 <__sfp+0x38>
   150d4:	00c00793          	li	a5,12
   150d8:	00f9a023          	sw	a5,0(s3)
   150dc:	00000513          	li	a0,0
   150e0:	fadff06f          	j	1508c <__sfp+0xb0>

00000000000150e4 <_cleanup>:
   150e4:	8081b503          	ld	a0,-2040(gp) # 23158 <_global_impure_ptr>
   150e8:	0001d5b7          	lui	a1,0x1d
   150ec:	9b458593          	addi	a1,a1,-1612 # 1c9b4 <_fclose_r>
   150f0:	7880006f          	j	15878 <_fwalk_reent>

00000000000150f4 <__sinit>:
   150f4:	05052783          	lw	a5,80(a0)
   150f8:	00078463          	beqz	a5,15100 <__sinit+0xc>
   150fc:	00008067          	ret
   15100:	cd9ff06f          	j	14dd8 <__sinit.part.1>

0000000000015104 <__sfp_lock_acquire>:
   15104:	00008067          	ret

0000000000015108 <__sfp_lock_release>:
   15108:	00008067          	ret

000000000001510c <__sinit_lock_acquire>:
   1510c:	00008067          	ret

0000000000015110 <__sinit_lock_release>:
   15110:	00008067          	ret

0000000000015114 <__fp_lock_all>:
   15114:	8101b503          	ld	a0,-2032(gp) # 23160 <_impure_ptr>
   15118:	000155b7          	lui	a1,0x15
   1511c:	f6858593          	addi	a1,a1,-152 # 14f68 <__fp_lock>
   15120:	6a80006f          	j	157c8 <_fwalk>

0000000000015124 <__fp_unlock_all>:
   15124:	8101b503          	ld	a0,-2032(gp) # 23160 <_impure_ptr>
   15128:	000155b7          	lui	a1,0x15
   1512c:	dc458593          	addi	a1,a1,-572 # 14dc4 <__fp_unlock>
   15130:	6980006f          	j	157c8 <_fwalk>

0000000000015134 <_fread_r>:
   15134:	fa010113          	addi	sp,sp,-96
   15138:	03613023          	sd	s6,32(sp)
   1513c:	02c68b33          	mul	s6,a3,a2
   15140:	04113c23          	sd	ra,88(sp)
   15144:	04813823          	sd	s0,80(sp)
   15148:	04913423          	sd	s1,72(sp)
   1514c:	05213023          	sd	s2,64(sp)
   15150:	03313c23          	sd	s3,56(sp)
   15154:	03413823          	sd	s4,48(sp)
   15158:	03513423          	sd	s5,40(sp)
   1515c:	01713c23          	sd	s7,24(sp)
   15160:	01813823          	sd	s8,16(sp)
   15164:	01913423          	sd	s9,8(sp)
   15168:	01a13023          	sd	s10,0(sp)
   1516c:	1c0b0863          	beqz	s6,1533c <_fread_r+0x208>
   15170:	00060b93          	mv	s7,a2
   15174:	00068a93          	mv	s5,a3
   15178:	00050a13          	mv	s4,a0
   1517c:	00058913          	mv	s2,a1
   15180:	00070413          	mv	s0,a4
   15184:	00050663          	beqz	a0,15190 <_fread_r+0x5c>
   15188:	05052783          	lw	a5,80(a0)
   1518c:	1c078a63          	beqz	a5,15360 <_fread_r+0x22c>
   15190:	01041683          	lh	a3,16(s0)
   15194:	03069793          	slli	a5,a3,0x30
   15198:	0307d793          	srli	a5,a5,0x30
   1519c:	03279713          	slli	a4,a5,0x32
   151a0:	02074a63          	bltz	a4,151d4 <_fread_r+0xa0>
   151a4:	000027b7          	lui	a5,0x2
   151a8:	0ac42603          	lw	a2,172(s0)
   151ac:	00f6e7b3          	or	a5,a3,a5
   151b0:	0107979b          	slliw	a5,a5,0x10
   151b4:	ffffe737          	lui	a4,0xffffe
   151b8:	4107d79b          	sraiw	a5,a5,0x10
   151bc:	fff7071b          	addiw	a4,a4,-1
   151c0:	00e67733          	and	a4,a2,a4
   151c4:	00f41823          	sh	a5,16(s0)
   151c8:	03079793          	slli	a5,a5,0x30
   151cc:	0ae42623          	sw	a4,172(s0)
   151d0:	0307d793          	srli	a5,a5,0x30
   151d4:	00842483          	lw	s1,8(s0)
   151d8:	00048713          	mv	a4,s1
   151dc:	1604c463          	bltz	s1,15344 <_fread_r+0x210>
   151e0:	0027f793          	andi	a5,a5,2
   151e4:	000b0993          	mv	s3,s6
   151e8:	0e078463          	beqz	a5,152d0 <_fread_r+0x19c>
   151ec:	000b0493          	mv	s1,s6
   151f0:	01677463          	bleu	s6,a4,151f8 <_fread_r+0xc4>
   151f4:	00070493          	mv	s1,a4
   151f8:	00043583          	ld	a1,0(s0)
   151fc:	00048613          	mv	a2,s1
   15200:	00090513          	mv	a0,s2
   15204:	48c010ef          	jal	16690 <memcpy>
   15208:	00842703          	lw	a4,8(s0)
   1520c:	00043c03          	ld	s8,0(s0)
   15210:	0004879b          	sext.w	a5,s1
   15214:	05843583          	ld	a1,88(s0)
   15218:	009c0c33          	add	s8,s8,s1
   1521c:	40f707bb          	subw	a5,a4,a5
   15220:	01843023          	sd	s8,0(s0)
   15224:	00f42423          	sw	a5,8(s0)
   15228:	409b09b3          	sub	s3,s6,s1
   1522c:	14058863          	beqz	a1,1537c <_fread_r+0x248>
   15230:	14098863          	beqz	s3,15380 <_fread_r+0x24c>
   15234:	07440793          	addi	a5,s0,116
   15238:	00f58863          	beq	a1,a5,15248 <_fread_r+0x114>
   1523c:	000a0513          	mv	a0,s4
   15240:	278000ef          	jal	154b8 <_free_r>
   15244:	00043c03          	ld	s8,0(s0)
   15248:	04043c23          	sd	zero,88(s0)
   1524c:	01843d03          	ld	s10,24(s0)
   15250:	02042c83          	lw	s9,32(s0)
   15254:	00990933          	add	s2,s2,s1
   15258:	0080006f          	j	15260 <_fread_r+0x12c>
   1525c:	12098263          	beqz	s3,15380 <_fread_r+0x24c>
   15260:	01243c23          	sd	s2,24(s0)
   15264:	03342023          	sw	s3,32(s0)
   15268:	01243023          	sd	s2,0(s0)
   1526c:	00040593          	mv	a1,s0
   15270:	000a0513          	mv	a0,s4
   15274:	6a0020ef          	jal	17914 <__srefill_r>
   15278:	00842783          	lw	a5,8(s0)
   1527c:	01a43c23          	sd	s10,24(s0)
   15280:	03942023          	sw	s9,32(s0)
   15284:	01843023          	sd	s8,0(s0)
   15288:	00042423          	sw	zero,8(s0)
   1528c:	40f989b3          	sub	s3,s3,a5
   15290:	00f90933          	add	s2,s2,a5
   15294:	fc0504e3          	beqz	a0,1525c <_fread_r+0x128>
   15298:	413b09b3          	sub	s3,s6,s3
   1529c:	0379d533          	divu	a0,s3,s7
   152a0:	0640006f          	j	15304 <_fread_r+0x1d0>
   152a4:	3ec010ef          	jal	16690 <memcpy>
   152a8:	00043783          	ld	a5,0(s0)
   152ac:	00990933          	add	s2,s2,s1
   152b0:	409989b3          	sub	s3,s3,s1
   152b4:	009784b3          	add	s1,a5,s1
   152b8:	00040593          	mv	a1,s0
   152bc:	000a0513          	mv	a0,s4
   152c0:	00943023          	sd	s1,0(s0)
   152c4:	650020ef          	jal	17914 <__srefill_r>
   152c8:	fc0518e3          	bnez	a0,15298 <_fread_r+0x164>
   152cc:	00842483          	lw	s1,8(s0)
   152d0:	00048613          	mv	a2,s1
   152d4:	00090513          	mv	a0,s2
   152d8:	00043583          	ld	a1,0(s0)
   152dc:	fd34e4e3          	bltu	s1,s3,152a4 <_fread_r+0x170>
   152e0:	00098613          	mv	a2,s3
   152e4:	3ac010ef          	jal	16690 <memcpy>
   152e8:	00842703          	lw	a4,8(s0)
   152ec:	00043783          	ld	a5,0(s0)
   152f0:	000a8513          	mv	a0,s5
   152f4:	4137073b          	subw	a4,a4,s3
   152f8:	013789b3          	add	s3,a5,s3
   152fc:	00e42423          	sw	a4,8(s0)
   15300:	01343023          	sd	s3,0(s0)
   15304:	05813083          	ld	ra,88(sp)
   15308:	05013403          	ld	s0,80(sp)
   1530c:	04813483          	ld	s1,72(sp)
   15310:	04013903          	ld	s2,64(sp)
   15314:	03813983          	ld	s3,56(sp)
   15318:	03013a03          	ld	s4,48(sp)
   1531c:	02813a83          	ld	s5,40(sp)
   15320:	02013b03          	ld	s6,32(sp)
   15324:	01813b83          	ld	s7,24(sp)
   15328:	01013c03          	ld	s8,16(sp)
   1532c:	00813c83          	ld	s9,8(sp)
   15330:	00013d03          	ld	s10,0(sp)
   15334:	06010113          	addi	sp,sp,96
   15338:	00008067          	ret
   1533c:	00000513          	li	a0,0
   15340:	fc5ff06f          	j	15304 <_fread_r+0x1d0>
   15344:	00042423          	sw	zero,8(s0)
   15348:	0027f793          	andi	a5,a5,2
   1534c:	00000713          	li	a4,0
   15350:	00000493          	li	s1,0
   15354:	000b0993          	mv	s3,s6
   15358:	f6078ce3          	beqz	a5,152d0 <_fread_r+0x19c>
   1535c:	e91ff06f          	j	151ec <_fread_r+0xb8>
   15360:	d95ff0ef          	jal	150f4 <__sinit>
   15364:	01041683          	lh	a3,16(s0)
   15368:	03069793          	slli	a5,a3,0x30
   1536c:	0307d793          	srli	a5,a5,0x30
   15370:	03279713          	slli	a4,a5,0x32
   15374:	e60740e3          	bltz	a4,151d4 <_fread_r+0xa0>
   15378:	e2dff06f          	j	151a4 <_fread_r+0x70>
   1537c:	ec0998e3          	bnez	s3,1524c <_fread_r+0x118>
   15380:	000a8513          	mv	a0,s5
   15384:	f81ff06f          	j	15304 <_fread_r+0x1d0>

0000000000015388 <fread>:
   15388:	00068713          	mv	a4,a3
   1538c:	00060693          	mv	a3,a2
   15390:	00058613          	mv	a2,a1
   15394:	00050593          	mv	a1,a0
   15398:	8101b503          	ld	a0,-2032(gp) # 23160 <_impure_ptr>
   1539c:	d99ff06f          	j	15134 <_fread_r>

00000000000153a0 <_malloc_trim_r>:
   153a0:	fd010113          	addi	sp,sp,-48
   153a4:	01213823          	sd	s2,16(sp)
   153a8:	00023937          	lui	s2,0x23
   153ac:	02813023          	sd	s0,32(sp)
   153b0:	00913c23          	sd	s1,24(sp)
   153b4:	00058413          	mv	s0,a1
